
handheldWeatherStation.elf:     file format elf32-avr

Sections:
Idx Name          Size      VMA       LMA       File off  Algn
  0 .text         000014ba  00000000  00000000  00000094  2**1
                  CONTENTS, ALLOC, LOAD, READONLY, CODE
  1 .data         0000004e  00800060  000014ba  0000154e  2**0
                  CONTENTS, ALLOC, LOAD, DATA
  2 .bss          0000000a  008000ae  008000ae  0000159c  2**0
                  ALLOC
  3 .debug_aranges 000001b0  00000000  00000000  0000159c  2**0
                  CONTENTS, READONLY, DEBUGGING
  4 .debug_pubnames 00000307  00000000  00000000  0000174c  2**0
                  CONTENTS, READONLY, DEBUGGING
  5 .debug_info   00000f28  00000000  00000000  00001a53  2**0
                  CONTENTS, READONLY, DEBUGGING
  6 .debug_abbrev 0000071a  00000000  00000000  0000297b  2**0
                  CONTENTS, READONLY, DEBUGGING
  7 .debug_line   000012a1  00000000  00000000  00003095  2**0
                  CONTENTS, READONLY, DEBUGGING
  8 .debug_frame  000002a0  00000000  00000000  00004338  2**2
                  CONTENTS, READONLY, DEBUGGING
  9 .debug_str    000003cd  00000000  00000000  000045d8  2**0
                  CONTENTS, READONLY, DEBUGGING
 10 .debug_loc    0000072f  00000000  00000000  000049a5  2**0
                  CONTENTS, READONLY, DEBUGGING
 11 .debug_ranges 000001c8  00000000  00000000  000050d4  2**0
                  CONTENTS, READONLY, DEBUGGING

Disassembly of section .text:

00000000 <__vectors>:

}

//scans the bus to find all i2c devices
void i2c_read_id()
{
       0:	3f c1       	rjmp	.+638    	; 0x280 <__ctors_end>
	
	//flash LED
	PORTB |= (1 << PB4);	//on
	_delay_ms(200);
	PORTB &= ~(1 << PB4);	//off
}
       2:	59 c1       	rjmp	.+690    	; 0x2b6 <__bad_interrupt>
 ARGS: x = 0-127, y = 0-7
*/
void oled_bitmap()
{
	//for()
}
       4:	58 c1       	rjmp	.+688    	; 0x2b6 <__bad_interrupt>
	i2c_write(0x24);	//some setting thing
	i2c_stop();
}

void sht_register(char cmd)
{
       6:	57 c1       	rjmp	.+686    	; 0x2b6 <__bad_interrupt>
       8:	56 c1       	rjmp	.+684    	; 0x2b6 <__bad_interrupt>
       a:	55 c1       	rjmp	.+682    	; 0x2b6 <__bad_interrupt>
       c:	54 c1       	rjmp	.+680    	; 0x2b6 <__bad_interrupt>
       e:	53 c1       	rjmp	.+678    	; 0x2b6 <__bad_interrupt>
      10:	52 c1       	rjmp	.+676    	; 0x2b6 <__bad_interrupt>
      12:	51 c1       	rjmp	.+674    	; 0x2b6 <__bad_interrupt>
      14:	50 c1       	rjmp	.+672    	; 0x2b6 <__bad_interrupt>
      16:	4f c1       	rjmp	.+670    	; 0x2b6 <__bad_interrupt>
      18:	cb c5       	rjmp	.+2966   	; 0xbb0 <__vector_12>
      1a:	4d c1       	rjmp	.+666    	; 0x2b6 <__bad_interrupt>
      1c:	4c c1       	rjmp	.+664    	; 0x2b6 <__bad_interrupt>

0000001e <oled_customChar>:
      1e:	0d 1b 11 11 11 1f 0d 1b 11 11 1f 1f 0d 1b 11 1f     ................
      2e:	1f 1f 0d 1b 1f 1f 1f 1f 0d 1f 1f 1f 1f 1f           ..............

0000003c <ssd1306_init_sequence>:
      3c:	ae 20 00 b0 c8 00 10 40 81 3f a1 a6 a8 3f a4 d3     . .....@.?...?..
      4c:	00 d5 f0 d9 22 da 12 db 20 8d 14 af                 ...."... ...

00000058 <oled_font6x8>:
	...
      60:	00 2f 00 00 00 00 07 00 07 00 00 14 7f 14 7f 14     ./..............
      70:	00 24 2a 7f 2a 12 00 62 64 08 13 23 00 36 49 55     .$*.*..bd..#.6IU
      80:	22 50 00 00 05 03 00 00 00 00 1c 22 41 00 00 00     "P........."A...
      90:	41 22 1c 00 00 14 08 3e 08 14 00 08 08 3e 08 08     A".....>.....>..
      a0:	00 00 00 a0 60 00 00 08 08 08 08 08 00 00 60 60     ....`.........``
      b0:	00 00 00 20 10 08 04 02 00 3e 51 49 45 3e 00 00     ... .....>QIE>..
      c0:	42 7f 40 00 00 42 61 51 49 46 00 21 41 45 4b 31     B.@..BaQIF.!AEK1
      d0:	00 18 14 12 7f 10 00 27 45 45 45 39 00 3c 4a 49     .......'EEE9.<JI
      e0:	49 30 00 01 71 09 05 03 00 36 49 49 49 36 00 06     I0..q....6III6..
      f0:	49 49 29 1e 00 00 36 36 00 00 00 00 56 36 00 00     II)...66....V6..
     100:	00 08 14 22 41 00 00 14 14 14 14 14 00 00 41 22     ..."A.........A"
     110:	14 08 00 02 01 51 09 06 00 32 49 59 51 3e 00 7c     .....Q...2IYQ>.|
     120:	12 11 12 7c 00 7f 49 49 49 36 00 3e 41 41 41 22     ...|..III6.>AAA"
     130:	00 7f 41 41 22 1c 00 7f 49 49 49 41 00 7f 09 09     ..AA"...IIIA....
     140:	09 01 00 3e 41 49 49 7a 00 7f 08 08 08 7f 00 00     ...>AIIz........
     150:	41 7f 41 00 00 20 40 41 3f 01 00 7f 08 14 22 41     A.A.. @A?....."A
     160:	00 7f 40 40 40 40 00 7f 02 0c 02 7f 00 7f 04 08     ..@@@@..........
     170:	10 7f 00 3e 41 41 41 3e 00 7f 09 09 09 06 00 3e     ...>AAA>.......>
     180:	41 51 21 5e 00 7f 09 19 29 46 00 46 49 49 49 31     AQ!^....)F.FIII1
     190:	00 01 01 7f 01 01 00 3f 40 40 40 3f 00 1f 20 40     .......?@@@?.. @
     1a0:	20 1f 00 3f 40 38 40 3f 00 63 14 08 14 63 00 07      ..?@8@?.c...c..
     1b0:	08 70 08 07 00 61 51 49 45 43 00 00 7f 41 41 00     .p...aQIEC...AA.
     1c0:	00 55 2a 55 2a 55 00 00 41 41 7f 00 00 04 02 01     .U*U*U..AA......
     1d0:	02 04 00 40 40 40 40 40 00 00 01 02 04 00 00 20     ...@@@@@....... 
     1e0:	54 54 54 78 00 7f 48 44 44 38 00 38 44 44 44 20     TTTx..HDD8.8DDD 
     1f0:	00 38 44 44 48 7f 00 38 54 54 54 18 00 08 7e 09     .8DDH..8TTT...~.
     200:	01 02 00 18 a4 a4 a4 7c 00 7f 08 04 04 78 00 00     .......|.....x..
     210:	44 7d 40 00 00 40 80 84 7d 00 00 7f 10 28 44 00     D}@..@..}....(D.
     220:	00 00 41 7f 40 00 00 7c 04 18 04 78 00 7c 08 04     ..A.@..|...x.|..
     230:	04 78 00 38 44 44 44 38 00 fc 24 24 24 18 00 18     .x.8DDD8..$$$...
     240:	24 24 18 fc 00 7c 08 04 04 08 00 48 54 54 54 20     $$...|.....HTTT 
     250:	00 04 3f 44 40 20 00 3c 40 40 20 7c 00 1c 20 40     ..?D@ .<@@ |.. @
     260:	20 1c 00 3c 40 30 40 3c 00 44 28 10 28 44 00 1c      ..<@0@<.D(.(D..
     270:	a0 a0 a0 7c 00 44 64 54 4c 44 14 14 14 14 14 14     ...|.DdTLD......

00000280 <__ctors_end>:
     280:	11 24       	eor	r1, r1
     282:	1f be       	out	0x3f, r1	; 63
     284:	cf e5       	ldi	r28, 0x5F	; 95
     286:	d2 e0       	ldi	r29, 0x02	; 2
     288:	de bf       	out	0x3e, r29	; 62
     28a:	cd bf       	out	0x3d, r28	; 61

0000028c <__do_copy_data>:
     28c:	10 e0       	ldi	r17, 0x00	; 0
     28e:	a0 e6       	ldi	r26, 0x60	; 96
     290:	b0 e0       	ldi	r27, 0x00	; 0
     292:	ea eb       	ldi	r30, 0xBA	; 186
     294:	f4 e1       	ldi	r31, 0x14	; 20
     296:	02 c0       	rjmp	.+4      	; 0x29c <.do_copy_data_start>

00000298 <.do_copy_data_loop>:
     298:	05 90       	lpm	r0, Z+
     29a:	0d 92       	st	X+, r0

0000029c <.do_copy_data_start>:
     29c:	ae 3a       	cpi	r26, 0xAE	; 174
     29e:	b1 07       	cpc	r27, r17
     2a0:	d9 f7       	brne	.-10     	; 0x298 <.do_copy_data_loop>

000002a2 <__do_clear_bss>:
     2a2:	10 e0       	ldi	r17, 0x00	; 0
     2a4:	ae ea       	ldi	r26, 0xAE	; 174
     2a6:	b0 e0       	ldi	r27, 0x00	; 0
     2a8:	01 c0       	rjmp	.+2      	; 0x2ac <.do_clear_bss_start>

000002aa <.do_clear_bss_loop>:
     2aa:	1d 92       	st	X+, r1

000002ac <.do_clear_bss_start>:
     2ac:	a8 3b       	cpi	r26, 0xB8	; 184
     2ae:	b1 07       	cpc	r27, r17
     2b0:	e1 f7       	brne	.-8      	; 0x2aa <.do_clear_bss_loop>
     2b2:	67 d5       	rcall	.+2766   	; 0xd82 <main>
     2b4:	00 c9       	rjmp	.-3584   	; 0xfffff4b6 <__eeprom_end+0xff7ef4b6>

000002b6 <__bad_interrupt>:
     2b6:	a4 ce       	rjmp	.-696    	; 0x0 <__vectors>

000002b8 <bmpSet>:
	i2c_write(0xB6);
	i2c_stop();
}

void bmpSet(unsigned char settings, unsigned char reg)
{
     2b8:	0f 93       	push	r16
     2ba:	1f 93       	push	r17
     2bc:	08 2f       	mov	r16, r24
     2be:	16 2f       	mov	r17, r22
	i2c_start();
     2c0:	76 d3       	rcall	.+1772   	; 0x9ae <i2c_start>
	i2c_device_id(bmp280, 0);
     2c2:	87 e7       	ldi	r24, 0x77	; 119
     2c4:	60 e0       	ldi	r22, 0x00	; 0
     2c6:	9d d3       	rcall	.+1850   	; 0xa02 <i2c_device_id>
	i2c_write(reg);
     2c8:	81 2f       	mov	r24, r17
     2ca:	3f d4       	rcall	.+2174   	; 0xb4a <i2c_write>

	i2c_write(settings);
     2cc:	80 2f       	mov	r24, r16
     2ce:	3d d4       	rcall	.+2170   	; 0xb4a <i2c_write>
	i2c_stop();
     2d0:	83 d3       	rcall	.+1798   	; 0x9d8 <i2c_stop>
}
     2d2:	1f 91       	pop	r17
     2d4:	0f 91       	pop	r16
     2d6:	08 95       	ret

000002d8 <bmpReset>:
	}
}

void bmpReset()
{
	i2c_start();
     2d8:	6a d3       	rcall	.+1748   	; 0x9ae <i2c_start>
	(void) i2c_device_id(bmp280, 0);
     2da:	87 e7       	ldi	r24, 0x77	; 119
     2dc:	60 e0       	ldi	r22, 0x00	; 0
     2de:	91 d3       	rcall	.+1826   	; 0xa02 <i2c_device_id>
	i2c_write(0xE0);
     2e0:	80 ee       	ldi	r24, 0xE0	; 224
     2e2:	33 d4       	rcall	.+2150   	; 0xb4a <i2c_write>
	
	i2c_start();
     2e4:	64 d3       	rcall	.+1736   	; 0x9ae <i2c_start>
	(void) i2c_device_id(bmp280, 0);
     2e6:	87 e7       	ldi	r24, 0x77	; 119
     2e8:	60 e0       	ldi	r22, 0x00	; 0
     2ea:	8b d3       	rcall	.+1814   	; 0xa02 <i2c_device_id>
	i2c_write(0xB6);
     2ec:	86 eb       	ldi	r24, 0xB6	; 182
     2ee:	2d d4       	rcall	.+2138   	; 0xb4a <i2c_write>
	i2c_stop();
     2f0:	73 d3       	rcall	.+1766   	; 0x9d8 <i2c_stop>
}
     2f2:	08 95       	ret

000002f4 <bmp280GetPressure>:

	return (T);
}

unsigned long bmp280GetPressure()
{
     2f4:	2f 92       	push	r2
     2f6:	3f 92       	push	r3
     2f8:	4f 92       	push	r4
     2fa:	5f 92       	push	r5
     2fc:	6f 92       	push	r6
     2fe:	7f 92       	push	r7
     300:	8f 92       	push	r8
     302:	9f 92       	push	r9
     304:	af 92       	push	r10
     306:	bf 92       	push	r11
     308:	cf 92       	push	r12
     30a:	df 92       	push	r13
     30c:	ef 92       	push	r14
     30e:	ff 92       	push	r15
     310:	0f 93       	push	r16
     312:	1f 93       	push	r17
     314:	df 93       	push	r29
     316:	cf 93       	push	r28
     318:	cd b7       	in	r28, 0x3d	; 61
     31a:	de b7       	in	r29, 0x3e	; 62
     31c:	61 97       	sbiw	r28, 0x11	; 17
     31e:	0f b6       	in	r0, 0x3f	; 63
     320:	f8 94       	cli
     322:	de bf       	out	0x3e, r29	; 62
     324:	0f be       	out	0x3f, r0	; 63
     326:	cd bf       	out	0x3d, r28	; 61
	long var1, var2, adc_P;
	unsigned long p;
	
	//t_fine = t_fine;
	//begin multi-byte data transfer
	i2c_start();
     328:	42 d3       	rcall	.+1668   	; 0x9ae <i2c_start>
	(void) i2c_device_id(bmp280, 0);
     32a:	87 e7       	ldi	r24, 0x77	; 119
     32c:	60 e0       	ldi	r22, 0x00	; 0
     32e:	69 d3       	rcall	.+1746   	; 0xa02 <i2c_device_id>
	//start at 0xF7-0xF9
	//point to pressure data location
	i2c_write(0xF7);
     330:	87 ef       	ldi	r24, 0xF7	; 247
     332:	0b d4       	rcall	.+2070   	; 0xb4a <i2c_write>

	//repeated start
	i2c_start();
     334:	3c d3       	rcall	.+1656   	; 0x9ae <i2c_start>
	(void) i2c_device_id(bmp280, 1);
     336:	87 e7       	ldi	r24, 0x77	; 119
     338:	61 e0       	ldi	r22, 0x01	; 1
     33a:	63 d3       	rcall	.+1734   	; 0xa02 <i2c_device_id>

	adc_P = i2c_read(0);
     33c:	80 e0       	ldi	r24, 0x00	; 0
     33e:	bd d3       	rcall	.+1914   	; 0xaba <i2c_read>
     340:	8f 87       	std	Y+15, r24	; 0x0f
	adc_P <<= 8;
	adc_P |= i2c_read(0);
     342:	80 e0       	ldi	r24, 0x00	; 0
     344:	ba d3       	rcall	.+1908   	; 0xaba <i2c_read>
     346:	8e 87       	std	Y+14, r24	; 0x0e
	adc_P <<= 8;
	adc_P |= i2c_read(1);
     348:	81 e0       	ldi	r24, 0x01	; 1
     34a:	b7 d3       	rcall	.+1902   	; 0xaba <i2c_read>
     34c:	8d 87       	std	Y+13, r24	; 0x0d

	i2c_stop();
     34e:	44 d3       	rcall	.+1672   	; 0x9d8 <i2c_stop>
	adc_P >>= 4;

	//pressure conversion formula from BMP280 documentation
	//32bit-fixed point conversion -pg 46

	var1 = (((long)t_fine) >> 1) - (long)64000;
     350:	80 91 ae 00 	lds	r24, 0x00AE
     354:	90 91 af 00 	lds	r25, 0x00AF
     358:	a0 91 b0 00 	lds	r26, 0x00B0
     35c:	b0 91 b1 00 	lds	r27, 0x00B1
     360:	b5 95       	asr	r27
     362:	a7 95       	ror	r26
     364:	97 95       	ror	r25
     366:	87 95       	ror	r24
     368:	0f 2e       	mov	r0, r31
     36a:	f0 e0       	ldi	r31, 0x00	; 0
     36c:	2f 2e       	mov	r2, r31
     36e:	f6 e0       	ldi	r31, 0x06	; 6
     370:	3f 2e       	mov	r3, r31
     372:	ff ef       	ldi	r31, 0xFF	; 255
     374:	4f 2e       	mov	r4, r31
     376:	ff ef       	ldi	r31, 0xFF	; 255
     378:	5f 2e       	mov	r5, r31
     37a:	f0 2d       	mov	r31, r0
     37c:	28 0e       	add	r2, r24
     37e:	39 1e       	adc	r3, r25
     380:	4a 1e       	adc	r4, r26
     382:	5b 1e       	adc	r5, r27
	var2 = (((var1 >> 2) * (var1 >> 2)) >> 11) * ((long)dig_P6);
     384:	a2 01       	movw	r20, r4
     386:	91 01       	movw	r18, r2
     388:	55 95       	asr	r21
     38a:	47 95       	ror	r20
     38c:	37 95       	ror	r19
     38e:	27 95       	ror	r18
     390:	55 95       	asr	r21
     392:	47 95       	ror	r20
     394:	37 95       	ror	r19
     396:	27 95       	ror	r18
     398:	ca 01       	movw	r24, r20
     39a:	b9 01       	movw	r22, r18
     39c:	17 d8       	rcall	.-4050   	; 0xfffff3cc <__eeprom_end+0xff7ef3cc>
     39e:	69 87       	std	Y+9, r22	; 0x09
     3a0:	7a 87       	std	Y+10, r23	; 0x0a
     3a2:	8b 87       	std	Y+11, r24	; 0x0b
     3a4:	9c 87       	std	Y+12, r25	; 0x0c
     3a6:	81 e1       	ldi	r24, 0x11	; 17
     3a8:	90 e0       	ldi	r25, 0x00	; 0
     3aa:	5f d8       	rcall	.-3906   	; 0xfffff46a <__eeprom_end+0xff7ef46a>
     3ac:	99 8b       	std	Y+17, r25	; 0x11
     3ae:	88 8b       	std	Y+16, r24	; 0x10
	
	var2 = var2 + ((var1 * ((long)dig_P5)) << 1);
     3b0:	8f e0       	ldi	r24, 0x0F	; 15
     3b2:	90 e0       	ldi	r25, 0x00	; 0
     3b4:	5a d8       	rcall	.-3916   	; 0xfffff46a <__eeprom_end+0xff7ef46a>
     3b6:	98 87       	std	Y+8, r25	; 0x08
     3b8:	8f 83       	std	Y+7, r24	; 0x07
	var2 = (var2 >> 2) + (((long)dig_P4) << 16);
     3ba:	8d e0       	ldi	r24, 0x0D	; 13
     3bc:	90 e0       	ldi	r25, 0x00	; 0
     3be:	55 d8       	rcall	.-3926   	; 0xfffff46a <__eeprom_end+0xff7ef46a>
     3c0:	9e 83       	std	Y+6, r25	; 0x06
     3c2:	8d 83       	std	Y+5, r24	; 0x05

	var1 = (((dig_P3 * (((var1 >> 2) * (var1 >> 2)) >> 13)) >> 3)
     3c4:	8b e0       	ldi	r24, 0x0B	; 11
     3c6:	90 e0       	ldi	r25, 0x00	; 0
     3c8:	50 d8       	rcall	.-3936   	; 0xfffff46a <__eeprom_end+0xff7ef46a>
     3ca:	7c 01       	movw	r14, r24
     3cc:	89 e0       	ldi	r24, 0x09	; 9
     3ce:	90 e0       	ldi	r25, 0x00	; 0
     3d0:	4c d8       	rcall	.-3944   	; 0xfffff46a <__eeprom_end+0xff7ef46a>
     3d2:	5c 01       	movw	r10, r24
     3d4:	69 85       	ldd	r22, Y+9	; 0x09
     3d6:	7a 85       	ldd	r23, Y+10	; 0x0a
     3d8:	8b 85       	ldd	r24, Y+11	; 0x0b
     3da:	9c 85       	ldd	r25, Y+12	; 0x0c
     3dc:	05 2e       	mov	r0, r21
     3de:	5d e0       	ldi	r21, 0x0D	; 13
     3e0:	95 95       	asr	r25
     3e2:	87 95       	ror	r24
     3e4:	77 95       	ror	r23
     3e6:	67 95       	ror	r22
     3e8:	5a 95       	dec	r21
     3ea:	d1 f7       	brne	.-12     	; 0x3e0 <bmp280GetPressure+0xec>
     3ec:	50 2d       	mov	r21, r0
     3ee:	00 27       	eor	r16, r16
     3f0:	f7 fc       	sbrc	r15, 7
     3f2:	00 95       	com	r16
     3f4:	10 2f       	mov	r17, r16
     3f6:	a8 01       	movw	r20, r16
     3f8:	97 01       	movw	r18, r14
     3fa:	e8 d7       	rcall	.+4048   	; 0x13cc <__mulsi3>
     3fc:	7b 01       	movw	r14, r22
     3fe:	8c 01       	movw	r16, r24
     400:	68 94       	set
     402:	12 f8       	bld	r1, 2
     404:	15 95       	asr	r17
     406:	07 95       	ror	r16
     408:	f7 94       	ror	r15
     40a:	e7 94       	ror	r14
     40c:	16 94       	lsr	r1
     40e:	d1 f7       	brne	.-12     	; 0x404 <bmp280GetPressure+0x110>
     410:	cc 24       	eor	r12, r12
     412:	b7 fc       	sbrc	r11, 7
     414:	c0 94       	com	r12
     416:	dc 2c       	mov	r13, r12
     418:	c6 01       	movw	r24, r12
     41a:	b5 01       	movw	r22, r10
     41c:	a2 01       	movw	r20, r4
     41e:	91 01       	movw	r18, r2
     420:	d5 d7       	rcall	.+4010   	; 0x13cc <__mulsi3>
     422:	95 95       	asr	r25
     424:	87 95       	ror	r24
     426:	77 95       	ror	r23
     428:	67 95       	ror	r22
     42a:	e6 0e       	add	r14, r22
     42c:	f7 1e       	adc	r15, r23
     42e:	08 1f       	adc	r16, r24
     430:	19 1f       	adc	r17, r25
	+ ((((long)dig_P2) * var1) >> 1)) >> 18;

	var1 = ((((32768 + var1)) * ((long) dig_P1)) >> 15);
     432:	87 e0       	ldi	r24, 0x07	; 7
     434:	90 e0       	ldi	r25, 0x00	; 0
     436:	19 d8       	rcall	.-4046   	; 0xfffff46a <__eeprom_end+0xff7ef46a>
     438:	0d 2e       	mov	r0, r29
     43a:	d2 e1       	ldi	r29, 0x12	; 18
     43c:	15 95       	asr	r17
     43e:	07 95       	ror	r16
     440:	f7 94       	ror	r15
     442:	e7 94       	ror	r14
     444:	da 95       	dec	r29
     446:	d1 f7       	brne	.-12     	; 0x43c <bmp280GetPressure+0x148>
     448:	d0 2d       	mov	r29, r0
     44a:	20 e0       	ldi	r18, 0x00	; 0
     44c:	30 e8       	ldi	r19, 0x80	; 128
     44e:	40 e0       	ldi	r20, 0x00	; 0
     450:	50 e0       	ldi	r21, 0x00	; 0
     452:	e2 0e       	add	r14, r18
     454:	f3 1e       	adc	r15, r19
     456:	04 1f       	adc	r16, r20
     458:	15 1f       	adc	r17, r21
     45a:	9c 01       	movw	r18, r24
     45c:	40 e0       	ldi	r20, 0x00	; 0
     45e:	50 e0       	ldi	r21, 0x00	; 0
     460:	c8 01       	movw	r24, r16
     462:	b7 01       	movw	r22, r14
     464:	b3 d7       	rcall	.+3942   	; 0x13cc <__mulsi3>
     466:	3b 01       	movw	r6, r22
     468:	4c 01       	movw	r8, r24
     46a:	05 2e       	mov	r0, r21
     46c:	5f e0       	ldi	r21, 0x0F	; 15
     46e:	95 94       	asr	r9
     470:	87 94       	ror	r8
     472:	77 94       	ror	r7
     474:	67 94       	ror	r6
     476:	5a 95       	dec	r21
     478:	d1 f7       	brne	.-12     	; 0x46e <bmp280GetPressure+0x17a>
     47a:	50 2d       	mov	r21, r0

	if(var1 == 0)
     47c:	61 14       	cp	r6, r1
     47e:	71 04       	cpc	r7, r1
     480:	81 04       	cpc	r8, r1
     482:	91 04       	cpc	r9, r1
     484:	29 f4       	brne	.+10     	; 0x490 <bmp280GetPressure+0x19c>
     486:	20 e0       	ldi	r18, 0x00	; 0
     488:	30 e0       	ldi	r19, 0x00	; 0
     48a:	40 e0       	ldi	r20, 0x00	; 0
     48c:	50 e0       	ldi	r21, 0x00	; 0
     48e:	18 c1       	rjmp	.+560    	; 0x6c0 <bmp280GetPressure+0x3cc>

	//repeated start
	i2c_start();
	(void) i2c_device_id(bmp280, 1);

	adc_P = i2c_read(0);
     490:	3f 85       	ldd	r19, Y+15	; 0x0f
     492:	e3 2e       	mov	r14, r19
     494:	ff 24       	eor	r15, r15
     496:	00 e0       	ldi	r16, 0x00	; 0
     498:	10 e0       	ldi	r17, 0x00	; 0
	adc_P <<= 8;
     49a:	10 2f       	mov	r17, r16
     49c:	0f 2d       	mov	r16, r15
     49e:	fe 2c       	mov	r15, r14
     4a0:	ee 24       	eor	r14, r14
	adc_P |= i2c_read(0);
     4a2:	4e 85       	ldd	r20, Y+14	; 0x0e
     4a4:	84 2f       	mov	r24, r20
     4a6:	90 e0       	ldi	r25, 0x00	; 0
     4a8:	a0 e0       	ldi	r26, 0x00	; 0
     4aa:	b0 e0       	ldi	r27, 0x00	; 0
     4ac:	e8 2a       	or	r14, r24
     4ae:	f9 2a       	or	r15, r25
     4b0:	0a 2b       	or	r16, r26
     4b2:	1b 2b       	or	r17, r27
	adc_P <<= 8;
     4b4:	10 2f       	mov	r17, r16
     4b6:	0f 2d       	mov	r16, r15
     4b8:	fe 2c       	mov	r15, r14
     4ba:	ee 24       	eor	r14, r14
	adc_P |= i2c_read(1);
     4bc:	5d 85       	ldd	r21, Y+13	; 0x0d
     4be:	85 2f       	mov	r24, r21
     4c0:	90 e0       	ldi	r25, 0x00	; 0
     4c2:	a0 e0       	ldi	r26, 0x00	; 0
     4c4:	b0 e0       	ldi	r27, 0x00	; 0
     4c6:	e8 2a       	or	r14, r24
     4c8:	f9 2a       	or	r15, r25
     4ca:	0a 2b       	or	r16, r26
     4cc:	1b 2b       	or	r17, r27

	//pressure conversion formula from BMP280 documentation
	//32bit-fixed point conversion -pg 46

	var1 = (((long)t_fine) >> 1) - (long)64000;
	var2 = (((var1 >> 2) * (var1 >> 2)) >> 11) * ((long)dig_P6);
     4ce:	69 85       	ldd	r22, Y+9	; 0x09
     4d0:	7a 85       	ldd	r23, Y+10	; 0x0a
     4d2:	8b 85       	ldd	r24, Y+11	; 0x0b
     4d4:	9c 85       	ldd	r25, Y+12	; 0x0c
     4d6:	05 2e       	mov	r0, r21
     4d8:	5b e0       	ldi	r21, 0x0B	; 11
     4da:	95 95       	asr	r25
     4dc:	87 95       	ror	r24
     4de:	77 95       	ror	r23
     4e0:	67 95       	ror	r22
     4e2:	5a 95       	dec	r21
     4e4:	d1 f7       	brne	.-12     	; 0x4da <bmp280GetPressure+0x1e6>
     4e6:	50 2d       	mov	r21, r0
     4e8:	e8 89       	ldd	r30, Y+16	; 0x10
     4ea:	f9 89       	ldd	r31, Y+17	; 0x11
     4ec:	9f 01       	movw	r18, r30
     4ee:	44 27       	eor	r20, r20
     4f0:	37 fd       	sbrc	r19, 7
     4f2:	40 95       	com	r20
     4f4:	54 2f       	mov	r21, r20
     4f6:	6a d7       	rcall	.+3796   	; 0x13cc <__mulsi3>
     4f8:	5b 01       	movw	r10, r22
     4fa:	6c 01       	movw	r12, r24
	
	var2 = var2 + ((var1 * ((long)dig_P5)) << 1);
	var2 = (var2 >> 2) + (((long)dig_P4) << 16);
     4fc:	2f 81       	ldd	r18, Y+7	; 0x07
     4fe:	38 85       	ldd	r19, Y+8	; 0x08
     500:	b9 01       	movw	r22, r18
     502:	88 27       	eor	r24, r24
     504:	77 fd       	sbrc	r23, 7
     506:	80 95       	com	r24
     508:	98 2f       	mov	r25, r24
     50a:	a2 01       	movw	r20, r4
     50c:	91 01       	movw	r18, r2
     50e:	5e d7       	rcall	.+3772   	; 0x13cc <__mulsi3>
     510:	66 0f       	add	r22, r22
     512:	77 1f       	adc	r23, r23
     514:	88 1f       	adc	r24, r24
     516:	99 1f       	adc	r25, r25
     518:	a6 0e       	add	r10, r22
     51a:	b7 1e       	adc	r11, r23
     51c:	c8 1e       	adc	r12, r24
     51e:	d9 1e       	adc	r13, r25
     520:	d5 94       	asr	r13
     522:	c7 94       	ror	r12
     524:	b7 94       	ror	r11
     526:	a7 94       	ror	r10
     528:	d5 94       	asr	r13
     52a:	c7 94       	ror	r12
     52c:	b7 94       	ror	r11
     52e:	a7 94       	ror	r10

	if(var1 == 0)
	{
		return 0;
	}
	p = (((unsigned long) (((long)1048576) - adc_P) - (var2 >> 12))) * 3125;
     530:	68 94       	set
     532:	13 f8       	bld	r1, 3
     534:	15 95       	asr	r17
     536:	07 95       	ror	r16
     538:	f7 94       	ror	r15
     53a:	e7 94       	ror	r14
     53c:	16 94       	lsr	r1
     53e:	d1 f7       	brne	.-12     	; 0x534 <bmp280GetPressure+0x240>
     540:	10 95       	com	r17
     542:	00 95       	com	r16
     544:	f0 94       	com	r15
     546:	e0 94       	com	r14
     548:	e1 1c       	adc	r14, r1
     54a:	f1 1c       	adc	r15, r1
     54c:	01 1d       	adc	r16, r1
     54e:	11 1d       	adc	r17, r1
     550:	4d 81       	ldd	r20, Y+5	; 0x05
     552:	5e 81       	ldd	r21, Y+6	; 0x06
     554:	ca 01       	movw	r24, r20
     556:	aa 27       	eor	r26, r26
     558:	97 fd       	sbrc	r25, 7
     55a:	a0 95       	com	r26
     55c:	ba 2f       	mov	r27, r26
     55e:	dc 01       	movw	r26, r24
     560:	99 27       	eor	r25, r25
     562:	88 27       	eor	r24, r24
     564:	a8 0e       	add	r10, r24
     566:	b9 1e       	adc	r11, r25
     568:	ca 1e       	adc	r12, r26
     56a:	db 1e       	adc	r13, r27
     56c:	09 2e       	mov	r0, r25
     56e:	9c e0       	ldi	r25, 0x0C	; 12
     570:	d5 94       	asr	r13
     572:	c7 94       	ror	r12
     574:	b7 94       	ror	r11
     576:	a7 94       	ror	r10
     578:	9a 95       	dec	r25
     57a:	d1 f7       	brne	.-12     	; 0x570 <bmp280GetPressure+0x27c>
     57c:	90 2d       	mov	r25, r0
     57e:	ea 18       	sub	r14, r10
     580:	fb 08       	sbc	r15, r11
     582:	0c 09       	sbc	r16, r12
     584:	1d 09       	sbc	r17, r13
     586:	c8 01       	movw	r24, r16
     588:	b7 01       	movw	r22, r14
     58a:	25 e3       	ldi	r18, 0x35	; 53
     58c:	3c e0       	ldi	r19, 0x0C	; 12
     58e:	40 e0       	ldi	r20, 0x00	; 0
     590:	50 e0       	ldi	r21, 0x00	; 0
     592:	1c d7       	rcall	.+3640   	; 0x13cc <__mulsi3>
     594:	60 50       	subi	r22, 0x00	; 0
     596:	70 40       	sbci	r23, 0x00	; 0
     598:	80 4b       	sbci	r24, 0xB0	; 176
     59a:	9c 43       	sbci	r25, 0x3C	; 60

	if(p < 0x80000000)
     59c:	82 f0       	brmi	.+32     	; 0x5be <bmp280GetPressure+0x2ca>
	{
		p = (p << 1) / ((unsigned long)var1);
     59e:	66 0f       	add	r22, r22
     5a0:	77 1f       	adc	r23, r23
     5a2:	88 1f       	adc	r24, r24
     5a4:	99 1f       	adc	r25, r25
     5a6:	a4 01       	movw	r20, r8
     5a8:	93 01       	movw	r18, r6
     5aa:	35 d7       	rcall	.+3690   	; 0x1416 <__udivmodsi4>
     5ac:	82 2f       	mov	r24, r18
     5ae:	93 2f       	mov	r25, r19
     5b0:	a4 2f       	mov	r26, r20
     5b2:	b5 2f       	mov	r27, r21
     5b4:	89 83       	std	Y+1, r24	; 0x01
     5b6:	9a 83       	std	Y+2, r25	; 0x02
     5b8:	ab 83       	std	Y+3, r26	; 0x03
     5ba:	bc 83       	std	Y+4, r27	; 0x04
     5bc:	11 c0       	rjmp	.+34     	; 0x5e0 <bmp280GetPressure+0x2ec>
	}
	else
	{
		p = (p / (unsigned long)var1) * 2;
     5be:	a4 01       	movw	r20, r8
     5c0:	93 01       	movw	r18, r6
     5c2:	29 d7       	rcall	.+3666   	; 0x1416 <__udivmodsi4>
     5c4:	82 2f       	mov	r24, r18
     5c6:	93 2f       	mov	r25, r19
     5c8:	a4 2f       	mov	r26, r20
     5ca:	b5 2f       	mov	r27, r21
     5cc:	9c 01       	movw	r18, r24
     5ce:	ad 01       	movw	r20, r26
     5d0:	22 0f       	add	r18, r18
     5d2:	33 1f       	adc	r19, r19
     5d4:	44 1f       	adc	r20, r20
     5d6:	55 1f       	adc	r21, r21
     5d8:	29 83       	std	Y+1, r18	; 0x01
     5da:	3a 83       	std	Y+2, r19	; 0x02
     5dc:	4b 83       	std	Y+3, r20	; 0x03
     5de:	5c 83       	std	Y+4, r21	; 0x04
	}

	var1 = (((long) dig_P9) * ((long) (((p >> 3) * (p >> 3)) >> 13))) >> 12;
     5e0:	87 e1       	ldi	r24, 0x17	; 23
     5e2:	90 e0       	ldi	r25, 0x00	; 0
     5e4:	42 d7       	rcall	.+3716   	; 0x146a <__eerd_word_tn85>
     5e6:	3c 01       	movw	r6, r24
     5e8:	29 80       	ldd	r2, Y+1	; 0x01
     5ea:	3a 80       	ldd	r3, Y+2	; 0x02
     5ec:	4b 80       	ldd	r4, Y+3	; 0x03
     5ee:	5c 80       	ldd	r5, Y+4	; 0x04
     5f0:	68 94       	set
     5f2:	12 f8       	bld	r1, 2
     5f4:	56 94       	lsr	r5
     5f6:	47 94       	ror	r4
     5f8:	37 94       	ror	r3
     5fa:	27 94       	ror	r2
     5fc:	16 94       	lsr	r1
     5fe:	d1 f7       	brne	.-12     	; 0x5f4 <bmp280GetPressure+0x300>
	var2 = (((long)(p >> 2)) * ((long) dig_P8)) >> 13;
     600:	85 e1       	ldi	r24, 0x15	; 21
     602:	90 e0       	ldi	r25, 0x00	; 0
     604:	32 d7       	rcall	.+3684   	; 0x146a <__eerd_word_tn85>
     606:	7c 01       	movw	r14, r24

	p = (unsigned long)((long)p + ((var1 + var2 + dig_P7) >> 4));
     608:	83 e1       	ldi	r24, 0x13	; 19
     60a:	90 e0       	ldi	r25, 0x00	; 0
     60c:	2e d7       	rcall	.+3676   	; 0x146a <__eerd_word_tn85>
     60e:	5c 01       	movw	r10, r24
     610:	69 81       	ldd	r22, Y+1	; 0x01
     612:	7a 81       	ldd	r23, Y+2	; 0x02
     614:	8b 81       	ldd	r24, Y+3	; 0x03
     616:	9c 81       	ldd	r25, Y+4	; 0x04
     618:	96 95       	lsr	r25
     61a:	87 95       	ror	r24
     61c:	77 95       	ror	r23
     61e:	67 95       	ror	r22
     620:	96 95       	lsr	r25
     622:	87 95       	ror	r24
     624:	77 95       	ror	r23
     626:	67 95       	ror	r22
     628:	00 27       	eor	r16, r16
     62a:	f7 fc       	sbrc	r15, 7
     62c:	00 95       	com	r16
     62e:	10 2f       	mov	r17, r16
     630:	a8 01       	movw	r20, r16
     632:	97 01       	movw	r18, r14
     634:	cb d6       	rcall	.+3478   	; 0x13cc <__mulsi3>
     636:	7b 01       	movw	r14, r22
     638:	8c 01       	movw	r16, r24
     63a:	0d 2e       	mov	r0, r29
     63c:	dd e0       	ldi	r29, 0x0D	; 13
     63e:	15 95       	asr	r17
     640:	07 95       	ror	r16
     642:	f7 94       	ror	r15
     644:	e7 94       	ror	r14
     646:	da 95       	dec	r29
     648:	d1 f7       	brne	.-12     	; 0x63e <bmp280GetPressure+0x34a>
     64a:	d0 2d       	mov	r29, r0
     64c:	cc 24       	eor	r12, r12
     64e:	b7 fc       	sbrc	r11, 7
     650:	c0 94       	com	r12
     652:	dc 2c       	mov	r13, r12
     654:	ea 0c       	add	r14, r10
     656:	fb 1c       	adc	r15, r11
     658:	0c 1d       	adc	r16, r12
     65a:	1d 1d       	adc	r17, r13
     65c:	c2 01       	movw	r24, r4
     65e:	b1 01       	movw	r22, r2
     660:	a2 01       	movw	r20, r4
     662:	91 01       	movw	r18, r2
     664:	b3 d6       	rcall	.+3430   	; 0x13cc <__mulsi3>
     666:	05 2e       	mov	r0, r21
     668:	5d e0       	ldi	r21, 0x0D	; 13
     66a:	96 95       	lsr	r25
     66c:	87 95       	ror	r24
     66e:	77 95       	ror	r23
     670:	67 95       	ror	r22
     672:	5a 95       	dec	r21
     674:	d1 f7       	brne	.-12     	; 0x66a <bmp280GetPressure+0x376>
     676:	50 2d       	mov	r21, r0
     678:	88 24       	eor	r8, r8
     67a:	77 fc       	sbrc	r7, 7
     67c:	80 94       	com	r8
     67e:	98 2c       	mov	r9, r8
     680:	a4 01       	movw	r20, r8
     682:	93 01       	movw	r18, r6
     684:	a3 d6       	rcall	.+3398   	; 0x13cc <__mulsi3>
     686:	05 2e       	mov	r0, r21
     688:	5c e0       	ldi	r21, 0x0C	; 12
     68a:	95 95       	asr	r25
     68c:	87 95       	ror	r24
     68e:	77 95       	ror	r23
     690:	67 95       	ror	r22
     692:	5a 95       	dec	r21
     694:	d1 f7       	brne	.-12     	; 0x68a <bmp280GetPressure+0x396>
     696:	50 2d       	mov	r21, r0
     698:	e6 0e       	add	r14, r22
     69a:	f7 1e       	adc	r15, r23
     69c:	08 1f       	adc	r16, r24
     69e:	19 1f       	adc	r17, r25
     6a0:	68 94       	set
     6a2:	13 f8       	bld	r1, 3
     6a4:	15 95       	asr	r17
     6a6:	07 95       	ror	r16
     6a8:	f7 94       	ror	r15
     6aa:	e7 94       	ror	r14
     6ac:	16 94       	lsr	r1
     6ae:	d1 f7       	brne	.-12     	; 0x6a4 <bmp280GetPressure+0x3b0>
     6b0:	29 81       	ldd	r18, Y+1	; 0x01
     6b2:	3a 81       	ldd	r19, Y+2	; 0x02
     6b4:	4b 81       	ldd	r20, Y+3	; 0x03
     6b6:	5c 81       	ldd	r21, Y+4	; 0x04
     6b8:	2e 0d       	add	r18, r14
     6ba:	3f 1d       	adc	r19, r15
     6bc:	40 1f       	adc	r20, r16
     6be:	51 1f       	adc	r21, r17
	
	return p;
     6c0:	62 2f       	mov	r22, r18
     6c2:	73 2f       	mov	r23, r19
     6c4:	84 2f       	mov	r24, r20
     6c6:	95 2f       	mov	r25, r21
     6c8:	61 96       	adiw	r28, 0x11	; 17
     6ca:	0f b6       	in	r0, 0x3f	; 63
     6cc:	f8 94       	cli
     6ce:	de bf       	out	0x3e, r29	; 62
     6d0:	0f be       	out	0x3f, r0	; 63
     6d2:	cd bf       	out	0x3d, r28	; 61
     6d4:	cf 91       	pop	r28
     6d6:	df 91       	pop	r29
     6d8:	1f 91       	pop	r17
     6da:	0f 91       	pop	r16
     6dc:	ff 90       	pop	r15
     6de:	ef 90       	pop	r14
     6e0:	df 90       	pop	r13
     6e2:	cf 90       	pop	r12
     6e4:	bf 90       	pop	r11
     6e6:	af 90       	pop	r10
     6e8:	9f 90       	pop	r9
     6ea:	8f 90       	pop	r8
     6ec:	7f 90       	pop	r7
     6ee:	6f 90       	pop	r6
     6f0:	5f 90       	pop	r5
     6f2:	4f 90       	pop	r4
     6f4:	3f 90       	pop	r3
     6f6:	2f 90       	pop	r2
     6f8:	08 95       	ret

000006fa <bmp280GetTemp>:
}

//must read temp before reading pressure
//temp is stored as 3 bytes, (0xFA-0xFC)
long bmp280GetTemp()
{
     6fa:	2f 92       	push	r2
     6fc:	3f 92       	push	r3
     6fe:	4f 92       	push	r4
     700:	5f 92       	push	r5
     702:	6f 92       	push	r6
     704:	7f 92       	push	r7
     706:	8f 92       	push	r8
     708:	9f 92       	push	r9
     70a:	af 92       	push	r10
     70c:	bf 92       	push	r11
     70e:	cf 92       	push	r12
     710:	df 92       	push	r13
     712:	ef 92       	push	r14
     714:	ff 92       	push	r15
     716:	0f 93       	push	r16
     718:	1f 93       	push	r17
     71a:	cf 93       	push	r28
     71c:	df 93       	push	r29
	//Keil long = 4 bytes, int = 2
	long adc_T, var1, var2;
	short T;
	
	i2c_start();
     71e:	47 d1       	rcall	.+654    	; 0x9ae <i2c_start>
	i2c_device_id(bmp280, 0);
     720:	87 e7       	ldi	r24, 0x77	; 119
     722:	60 e0       	ldi	r22, 0x00	; 0
     724:	6e d1       	rcall	.+732    	; 0xa02 <i2c_device_id>

	i2c_write(0xFA);
     726:	8a ef       	ldi	r24, 0xFA	; 250
     728:	10 d2       	rcall	.+1056   	; 0xb4a <i2c_write>

	i2c_start();
     72a:	41 d1       	rcall	.+642    	; 0x9ae <i2c_start>
	
	i2c_device_id(bmp280, 1);
     72c:	87 e7       	ldi	r24, 0x77	; 119
     72e:	61 e0       	ldi	r22, 0x01	; 1
     730:	68 d1       	rcall	.+720    	; 0xa02 <i2c_device_id>
	
	//shove temperature data into a 4 byte variable
	adc_T = i2c_read(0);
     732:	80 e0       	ldi	r24, 0x00	; 0
     734:	c2 d1       	rcall	.+900    	; 0xaba <i2c_read>
     736:	a8 2e       	mov	r10, r24
     738:	bb 24       	eor	r11, r11
     73a:	cc 24       	eor	r12, r12
     73c:	dd 24       	eor	r13, r13
	adc_T <<= 8;
     73e:	dc 2c       	mov	r13, r12
     740:	cb 2c       	mov	r12, r11
     742:	ba 2c       	mov	r11, r10
     744:	aa 24       	eor	r10, r10
	adc_T |= i2c_read(0);
     746:	80 e0       	ldi	r24, 0x00	; 0
     748:	b8 d1       	rcall	.+880    	; 0xaba <i2c_read>
     74a:	90 e0       	ldi	r25, 0x00	; 0
     74c:	a0 e0       	ldi	r26, 0x00	; 0
     74e:	b0 e0       	ldi	r27, 0x00	; 0
     750:	a8 2a       	or	r10, r24
     752:	b9 2a       	or	r11, r25
     754:	ca 2a       	or	r12, r26
     756:	db 2a       	or	r13, r27
	adc_T <<= 8;
     758:	dc 2c       	mov	r13, r12
     75a:	cb 2c       	mov	r12, r11
     75c:	ba 2c       	mov	r11, r10
     75e:	aa 24       	eor	r10, r10
	adc_T |= i2c_read(1);
     760:	81 e0       	ldi	r24, 0x01	; 1
     762:	ab d1       	rcall	.+854    	; 0xaba <i2c_read>
     764:	90 e0       	ldi	r25, 0x00	; 0
     766:	a0 e0       	ldi	r26, 0x00	; 0
     768:	b0 e0       	ldi	r27, 0x00	; 0
     76a:	a8 2a       	or	r10, r24
     76c:	b9 2a       	or	r11, r25
     76e:	ca 2a       	or	r12, r26
     770:	db 2a       	or	r13, r27
	i2c_stop();
     772:	32 d1       	rcall	.+612    	; 0x9d8 <i2c_stop>
	//conversion formula takes 20 bits
	adc_T >>= 4;

	//32bit-fixed point formula from BMP280 documentation -pg45-46 (8.2)

	var1 = ((((adc_T>>3) - ((long)dig_T1<<1))) * ((long)dig_T2)) >> 11;
     774:	81 e0       	ldi	r24, 0x01	; 1
     776:	90 e0       	ldi	r25, 0x00	; 0
     778:	78 d6       	rcall	.+3312   	; 0x146a <__eerd_word_tn85>
     77a:	1c 01       	movw	r2, r24
     77c:	44 24       	eor	r4, r4
     77e:	55 24       	eor	r5, r5
     780:	83 e0       	ldi	r24, 0x03	; 3
     782:	90 e0       	ldi	r25, 0x00	; 0
     784:	72 d6       	rcall	.+3300   	; 0x146a <__eerd_word_tn85>
     786:	ec 01       	movw	r28, r24
	var2  = (((((adc_T>>4) - ((long)dig_T1)) * ((adc_T>>4)
     788:	11 27       	eor	r17, r17
     78a:	d7 fc       	sbrc	r13, 7
     78c:	1a 95       	dec	r17
     78e:	0d 2d       	mov	r16, r13
     790:	fc 2c       	mov	r15, r12
     792:	eb 2c       	mov	r14, r11
     794:	e2 18       	sub	r14, r2
     796:	f3 08       	sbc	r15, r3
     798:	04 09       	sbc	r16, r4
     79a:	15 09       	sbc	r17, r5
     79c:	85 e0       	ldi	r24, 0x05	; 5
     79e:	90 e0       	ldi	r25, 0x00	; 0
     7a0:	64 d6       	rcall	.+3272   	; 0x146a <__eerd_word_tn85>
     7a2:	3c 01       	movw	r6, r24
		- ((long)dig_T1))) >> 12) * ((long)dig_T3)) >> 14;

	t_fine = var1+var2;
     7a4:	c8 01       	movw	r24, r16
     7a6:	b7 01       	movw	r22, r14
     7a8:	a8 01       	movw	r20, r16
     7aa:	97 01       	movw	r18, r14
     7ac:	0f d6       	rcall	.+3102   	; 0x13cc <__mulsi3>
     7ae:	05 2e       	mov	r0, r21
     7b0:	5c e0       	ldi	r21, 0x0C	; 12
     7b2:	95 95       	asr	r25
     7b4:	87 95       	ror	r24
     7b6:	77 95       	ror	r23
     7b8:	67 95       	ror	r22
     7ba:	5a 95       	dec	r21
     7bc:	d1 f7       	brne	.-12     	; 0x7b2 <bmp280GetTemp+0xb8>
     7be:	50 2d       	mov	r21, r0
     7c0:	88 24       	eor	r8, r8
     7c2:	77 fc       	sbrc	r7, 7
     7c4:	80 94       	com	r8
     7c6:	98 2c       	mov	r9, r8
     7c8:	a4 01       	movw	r20, r8
     7ca:	93 01       	movw	r18, r6
     7cc:	ff d5       	rcall	.+3070   	; 0x13cc <__mulsi3>
     7ce:	7b 01       	movw	r14, r22
     7d0:	8c 01       	movw	r16, r24
     7d2:	0d 2e       	mov	r0, r29
     7d4:	de e0       	ldi	r29, 0x0E	; 14
     7d6:	15 95       	asr	r17
     7d8:	07 95       	ror	r16
     7da:	f7 94       	ror	r15
     7dc:	e7 94       	ror	r14
     7de:	da 95       	dec	r29
     7e0:	d1 f7       	brne	.-12     	; 0x7d6 <bmp280GetTemp+0xdc>
     7e2:	d0 2d       	mov	r29, r0
     7e4:	68 94       	set
     7e6:	16 f8       	bld	r1, 6
     7e8:	d5 94       	asr	r13
     7ea:	c7 94       	ror	r12
     7ec:	b7 94       	ror	r11
     7ee:	a7 94       	ror	r10
     7f0:	16 94       	lsr	r1
     7f2:	d1 f7       	brne	.-12     	; 0x7e8 <bmp280GetTemp+0xee>
     7f4:	22 0c       	add	r2, r2
     7f6:	33 1c       	adc	r3, r3
     7f8:	44 1c       	adc	r4, r4
     7fa:	55 1c       	adc	r5, r5
     7fc:	a2 18       	sub	r10, r2
     7fe:	b3 08       	sbc	r11, r3
     800:	c4 08       	sbc	r12, r4
     802:	d5 08       	sbc	r13, r5
     804:	9e 01       	movw	r18, r28
     806:	44 27       	eor	r20, r20
     808:	37 fd       	sbrc	r19, 7
     80a:	40 95       	com	r20
     80c:	54 2f       	mov	r21, r20
     80e:	c6 01       	movw	r24, r12
     810:	b5 01       	movw	r22, r10
     812:	dc d5       	rcall	.+3000   	; 0x13cc <__mulsi3>
     814:	05 2e       	mov	r0, r21
     816:	5b e0       	ldi	r21, 0x0B	; 11
     818:	95 95       	asr	r25
     81a:	87 95       	ror	r24
     81c:	77 95       	ror	r23
     81e:	67 95       	ror	r22
     820:	5a 95       	dec	r21
     822:	d1 f7       	brne	.-12     	; 0x818 <bmp280GetTemp+0x11e>
     824:	50 2d       	mov	r21, r0
     826:	e6 0e       	add	r14, r22
     828:	f7 1e       	adc	r15, r23
     82a:	08 1f       	adc	r16, r24
     82c:	19 1f       	adc	r17, r25
     82e:	e0 92 ae 00 	sts	0x00AE, r14
     832:	f0 92 af 00 	sts	0x00AF, r15
     836:	00 93 b0 00 	sts	0x00B0, r16
     83a:	10 93 b1 00 	sts	0x00B1, r17
     83e:	a8 01       	movw	r20, r16
     840:	97 01       	movw	r18, r14
     842:	22 0f       	add	r18, r18
     844:	33 1f       	adc	r19, r19
     846:	44 1f       	adc	r20, r20
     848:	55 1f       	adc	r21, r21
     84a:	22 0f       	add	r18, r18
     84c:	33 1f       	adc	r19, r19
     84e:	44 1f       	adc	r20, r20
     850:	55 1f       	adc	r21, r21
     852:	2e 0d       	add	r18, r14
     854:	3f 1d       	adc	r19, r15
     856:	40 1f       	adc	r20, r16
     858:	51 1f       	adc	r21, r17
     85a:	20 58       	subi	r18, 0x80	; 128
     85c:	3f 4f       	sbci	r19, 0xFF	; 255
     85e:	4f 4f       	sbci	r20, 0xFF	; 255
     860:	5f 4f       	sbci	r21, 0xFF	; 255
     862:	23 2f       	mov	r18, r19
     864:	34 2f       	mov	r19, r20
     866:	45 2f       	mov	r20, r21
     868:	55 27       	eor	r21, r21
     86a:	47 fd       	sbrc	r20, 7
     86c:	5a 95       	dec	r21
     86e:	44 27       	eor	r20, r20
     870:	37 fd       	sbrc	r19, 7
     872:	40 95       	com	r20
     874:	54 2f       	mov	r21, r20
	T = (t_fine*5+128) >> 8;

	return (T);
}
     876:	62 2f       	mov	r22, r18
     878:	73 2f       	mov	r23, r19
     87a:	84 2f       	mov	r24, r20
     87c:	95 2f       	mov	r25, r21
     87e:	df 91       	pop	r29
     880:	cf 91       	pop	r28
     882:	1f 91       	pop	r17
     884:	0f 91       	pop	r16
     886:	ff 90       	pop	r15
     888:	ef 90       	pop	r14
     88a:	df 90       	pop	r13
     88c:	cf 90       	pop	r12
     88e:	bf 90       	pop	r11
     890:	af 90       	pop	r10
     892:	9f 90       	pop	r9
     894:	8f 90       	pop	r8
     896:	7f 90       	pop	r7
     898:	6f 90       	pop	r6
     89a:	5f 90       	pop	r5
     89c:	4f 90       	pop	r4
     89e:	3f 90       	pop	r3
     8a0:	2f 90       	pop	r2
     8a2:	08 95       	ret

000008a4 <bmpCalibration>:

//global variable to store value needed for pressure measurement
long t_fine = 0;

void bmpCalibration()
{
     8a4:	af 92       	push	r10
     8a6:	bf 92       	push	r11
     8a8:	cf 92       	push	r12
     8aa:	df 92       	push	r13
     8ac:	ef 92       	push	r14
     8ae:	ff 92       	push	r15
     8b0:	0f 93       	push	r16
     8b2:	1f 93       	push	r17
     8b4:	df 93       	push	r29
     8b6:	cf 93       	push	r28
     8b8:	cd b7       	in	r28, 0x3d	; 61
     8ba:	de b7       	in	r29, 0x3e	; 62
     8bc:	68 97       	sbiw	r28, 0x18	; 24
     8be:	0f b6       	in	r0, 0x3f	; 63
     8c0:	f8 94       	cli
     8c2:	de bf       	out	0x3e, r29	; 62
     8c4:	0f be       	out	0x3f, r0	; 63
     8c6:	cd bf       	out	0x3d, r28	; 61
	unsigned char i;
	uint16_t* j = (uint16_t*)0;
	unsigned short arr[12];
	//short temp;	//stores 2 byte calibration data
	
	i2c_start();
     8c8:	72 d0       	rcall	.+228    	; 0x9ae <i2c_start>
	
	i2c_device_id(bmp280, 0);
     8ca:	87 e7       	ldi	r24, 0x77	; 119
     8cc:	60 e0       	ldi	r22, 0x00	; 0
     8ce:	99 d0       	rcall	.+306    	; 0xa02 <i2c_device_id>
	
	i2c_write(0x88);	//start of calibration data
     8d0:	88 e8       	ldi	r24, 0x88	; 136
     8d2:	3b d1       	rcall	.+630    	; 0xb4a <i2c_write>
	
	//quick start
	i2c_start();
     8d4:	6c d0       	rcall	.+216    	; 0x9ae <i2c_start>
	i2c_device_id(bmp280, 1);
     8d6:	87 e7       	ldi	r24, 0x77	; 119
     8d8:	61 e0       	ldi	r22, 0x01	; 1
     8da:	93 d0       	rcall	.+294    	; 0xa02 <i2c_device_id>
     8dc:	6e 01       	movw	r12, r28
     8de:	08 94       	sec
     8e0:	c1 1c       	adc	r12, r1
     8e2:	d1 1c       	adc	r13, r1
     8e4:	76 01       	movw	r14, r12
	
	for(i = 0; i < 12; i++)	//write calibration values to EEPROM or return pointer?
     8e6:	0f 2e       	mov	r0, r31
     8e8:	f9 e1       	ldi	r31, 0x19	; 25
     8ea:	af 2e       	mov	r10, r31
     8ec:	bb 24       	eor	r11, r11
     8ee:	f0 2d       	mov	r31, r0
     8f0:	ac 0e       	add	r10, r28
     8f2:	bd 1e       	adc	r11, r29
	{
		arr[i] = i2c_read(0);
     8f4:	80 e0       	ldi	r24, 0x00	; 0
     8f6:	e1 d0       	rcall	.+450    	; 0xaba <i2c_read>
     8f8:	18 2f       	mov	r17, r24
		arr[i] <<= 8;
		arr[i] |= i2c_read(0);
     8fa:	80 e0       	ldi	r24, 0x00	; 0
     8fc:	de d0       	rcall	.+444    	; 0xaba <i2c_read>
		arr[i] = (arr[i] >> 8) | (arr[i] << 8);
     8fe:	00 e0       	ldi	r16, 0x00	; 0
     900:	90 e0       	ldi	r25, 0x00	; 0
     902:	80 2b       	or	r24, r16
     904:	91 2b       	or	r25, r17
     906:	f7 01       	movw	r30, r14
     908:	90 83       	st	Z, r25
     90a:	81 83       	std	Z+1, r24	; 0x01
     90c:	82 e0       	ldi	r24, 0x02	; 2
     90e:	90 e0       	ldi	r25, 0x00	; 0
     910:	e8 0e       	add	r14, r24
     912:	f9 1e       	adc	r15, r25
	
	//quick start
	i2c_start();
	i2c_device_id(bmp280, 1);
	
	for(i = 0; i < 12; i++)	//write calibration values to EEPROM or return pointer?
     914:	ea 14       	cp	r14, r10
     916:	fb 04       	cpc	r15, r11
     918:	69 f7       	brne	.-38     	; 0x8f4 <bmpCalibration+0x50>
		arr[i] = i2c_read(0);
		arr[i] <<= 8;
		arr[i] |= i2c_read(0);
		arr[i] = (arr[i] >> 8) | (arr[i] << 8);
	}
	i2c_read(1);
     91a:	81 e0       	ldi	r24, 0x01	; 1
     91c:	ce d0       	rcall	.+412    	; 0xaba <i2c_read>
	
	//arr[sizeof(arr)] = i2c_read(1);
	
	i2c_stop();
     91e:	5c d0       	rcall	.+184    	; 0x9d8 <i2c_stop>
     920:	01 e0       	ldi	r16, 0x01	; 1
     922:	10 e0       	ldi	r17, 0x00	; 0
	
	for(i = 0, j = (uint16_t *)1 ; i < 12; i++)
	{
		eeprom_write_word((uint16_t *)j, arr[i]);
		j++;
		while(!eeprom_is_ready());	//wait for eeprom to write data
     924:	0f 2e       	mov	r0, r31
     926:	fc e3       	ldi	r31, 0x3C	; 60
     928:	ef 2e       	mov	r14, r31
     92a:	ff 24       	eor	r15, r15
     92c:	f0 2d       	mov	r31, r0
	
	i2c_stop();
	
	for(i = 0, j = (uint16_t *)1 ; i < 12; i++)
	{
		eeprom_write_word((uint16_t *)j, arr[i]);
     92e:	f6 01       	movw	r30, r12
     930:	60 81       	ld	r22, Z
     932:	71 81       	ldd	r23, Z+1	; 0x01
     934:	c8 01       	movw	r24, r16
     936:	ac d5       	rcall	.+2904   	; 0x1490 <__eewr_word_tn85>
		j++;
     938:	0e 5f       	subi	r16, 0xFE	; 254
     93a:	1f 4f       	sbci	r17, 0xFF	; 255
		while(!eeprom_is_ready());	//wait for eeprom to write data
     93c:	f7 01       	movw	r30, r14
     93e:	80 81       	ld	r24, Z
     940:	81 fd       	sbrc	r24, 1
     942:	fc cf       	rjmp	.-8      	; 0x93c <bmpCalibration+0x98>
     944:	82 e0       	ldi	r24, 0x02	; 2
     946:	90 e0       	ldi	r25, 0x00	; 0
     948:	c8 0e       	add	r12, r24
     94a:	d9 1e       	adc	r13, r25
	
	//arr[sizeof(arr)] = i2c_read(1);
	
	i2c_stop();
	
	for(i = 0, j = (uint16_t *)1 ; i < 12; i++)
     94c:	09 31       	cpi	r16, 0x19	; 25
     94e:	11 05       	cpc	r17, r1
     950:	71 f7       	brne	.-36     	; 0x92e <bmpCalibration+0x8a>
	{
		eeprom_write_word((uint16_t *)j, arr[i]);
		j++;
		while(!eeprom_is_ready());	//wait for eeprom to write data
	}
}
     952:	68 96       	adiw	r28, 0x18	; 24
     954:	0f b6       	in	r0, 0x3f	; 63
     956:	f8 94       	cli
     958:	de bf       	out	0x3e, r29	; 62
     95a:	0f be       	out	0x3f, r0	; 63
     95c:	cd bf       	out	0x3d, r28	; 61
     95e:	cf 91       	pop	r28
     960:	df 91       	pop	r29
     962:	1f 91       	pop	r17
     964:	0f 91       	pop	r16
     966:	ff 90       	pop	r15
     968:	ef 90       	pop	r14
     96a:	df 90       	pop	r13
     96c:	cf 90       	pop	r12
     96e:	bf 90       	pop	r11
     970:	af 90       	pop	r10
     972:	08 95       	ret

00000974 <init_i2c>:

#include "i2c.h"

void init_i2c()
{
	DDRB |= (1 << PB0);	// Set SDA as output
     974:	e7 e3       	ldi	r30, 0x37	; 55
     976:	f0 e0       	ldi	r31, 0x00	; 0
     978:	80 81       	ld	r24, Z
     97a:	81 60       	ori	r24, 0x01	; 1
     97c:	80 83       	st	Z, r24
	DDRB |= (1 << PB2);	// Set SCL as output
     97e:	80 81       	ld	r24, Z
     980:	84 60       	ori	r24, 0x04	; 4
     982:	80 83       	st	Z, r24
	
	SDA_HIGH;
     984:	e8 e3       	ldi	r30, 0x38	; 56
     986:	f0 e0       	ldi	r31, 0x00	; 0
     988:	80 81       	ld	r24, Z
     98a:	81 60       	ori	r24, 0x01	; 1
     98c:	80 83       	st	Z, r24
	SCL_HIGH;
     98e:	80 81       	ld	r24, Z
     990:	84 60       	ori	r24, 0x04	; 4
     992:	80 83       	st	Z, r24
}
     994:	08 95       	ret

00000996 <i2c_clock>:

void i2c_clock()
{
	SCL_HIGH;
     996:	e8 e3       	ldi	r30, 0x38	; 56
     998:	f0 e0       	ldi	r31, 0x00	; 0
     99a:	80 81       	ld	r24, Z
     99c:	84 60       	ori	r24, 0x04	; 4
     99e:	80 83       	st	Z, r24
    can be achieved.
*/
void
_delay_loop_1(uint8_t __count)
{
	__asm__ volatile (
     9a0:	81 e0       	ldi	r24, 0x01	; 1
     9a2:	8a 95       	dec	r24
     9a4:	f1 f7       	brne	.-4      	; 0x9a2 <i2c_clock+0xc>
	_delay_us(TIME);
	SCL_LOW;
     9a6:	80 81       	ld	r24, Z
     9a8:	8b 7f       	andi	r24, 0xFB	; 251
     9aa:	80 83       	st	Z, r24
}
     9ac:	08 95       	ret

000009ae <i2c_start>:

void i2c_start()
{
	//Clock stays high and SDA pulled low
	SDA_HIGH;
     9ae:	e8 e3       	ldi	r30, 0x38	; 56
     9b0:	f0 e0       	ldi	r31, 0x00	; 0
     9b2:	80 81       	ld	r24, Z
     9b4:	81 60       	ori	r24, 0x01	; 1
     9b6:	80 83       	st	Z, r24
	SCL_HIGH;
     9b8:	80 81       	ld	r24, Z
     9ba:	84 60       	ori	r24, 0x04	; 4
     9bc:	80 83       	st	Z, r24
     9be:	91 e0       	ldi	r25, 0x01	; 1
     9c0:	89 2f       	mov	r24, r25
     9c2:	8a 95       	dec	r24
     9c4:	f1 f7       	brne	.-4      	; 0x9c2 <i2c_start+0x14>

	_delay_us(TIME);
	SDA_LOW;
     9c6:	80 81       	ld	r24, Z
     9c8:	8e 7f       	andi	r24, 0xFE	; 254
     9ca:	80 83       	st	Z, r24
     9cc:	9a 95       	dec	r25
     9ce:	f1 f7       	brne	.-4      	; 0x9cc <i2c_start+0x1e>
	_delay_us(TIME);
	SCL_LOW;
     9d0:	80 81       	ld	r24, Z
     9d2:	8b 7f       	andi	r24, 0xFB	; 251
     9d4:	80 83       	st	Z, r24
}
     9d6:	08 95       	ret

000009d8 <i2c_stop>:

void i2c_stop()
{
	//clock goes low before data
	SCL_LOW;
     9d8:	e8 e3       	ldi	r30, 0x38	; 56
     9da:	f0 e0       	ldi	r31, 0x00	; 0
     9dc:	80 81       	ld	r24, Z
     9de:	8b 7f       	andi	r24, 0xFB	; 251
     9e0:	80 83       	st	Z, r24
	SDA_LOW;
     9e2:	80 81       	ld	r24, Z
     9e4:	8e 7f       	andi	r24, 0xFE	; 254
     9e6:	80 83       	st	Z, r24
     9e8:	91 e0       	ldi	r25, 0x01	; 1
     9ea:	89 2f       	mov	r24, r25
     9ec:	8a 95       	dec	r24
     9ee:	f1 f7       	brne	.-4      	; 0x9ec <i2c_stop+0x14>
	_delay_us(TIME);

	SCL_HIGH;
     9f0:	80 81       	ld	r24, Z
     9f2:	84 60       	ori	r24, 0x04	; 4
     9f4:	80 83       	st	Z, r24
     9f6:	9a 95       	dec	r25
     9f8:	f1 f7       	brne	.-4      	; 0x9f6 <i2c_stop+0x1e>
	_delay_us(TIME);
	SDA_HIGH;
     9fa:	80 81       	ld	r24, Z
     9fc:	81 60       	ori	r24, 0x01	; 1
     9fe:	80 83       	st	Z, r24
}
     a00:	08 95       	ret

00000a02 <i2c_device_id>:

char i2c_device_id(volatile char id, volatile char rw)
{
     a02:	ef 92       	push	r14
     a04:	ff 92       	push	r15
     a06:	0f 93       	push	r16
     a08:	1f 93       	push	r17
     a0a:	df 93       	push	r29
     a0c:	cf 93       	push	r28
     a0e:	00 d0       	rcall	.+0      	; 0xa10 <i2c_device_id+0xe>
     a10:	cd b7       	in	r28, 0x3d	; 61
     a12:	de b7       	in	r29, 0x3e	; 62
     a14:	89 83       	std	Y+1, r24	; 0x01
     a16:	6a 83       	std	Y+2, r22	; 0x02
	char i, ACK;
	//id = 0x77;//0x76;//0x3C;//78;

	//check if valid i2c address
	if(id < 8 || id > 120)
     a18:	89 81       	ldd	r24, Y+1	; 0x01
     a1a:	88 30       	cpi	r24, 0x08	; 8
     a1c:	08 f4       	brcc	.+2      	; 0xa20 <i2c_device_id+0x1e>
     a1e:	42 c0       	rjmp	.+132    	; 0xaa4 <i2c_device_id+0xa2>
     a20:	89 81       	ldd	r24, Y+1	; 0x01
     a22:	89 37       	cpi	r24, 0x79	; 121
     a24:	08 f0       	brcs	.+2      	; 0xa28 <i2c_device_id+0x26>
     a26:	3e c0       	rjmp	.+124    	; 0xaa4 <i2c_device_id+0xa2>
     a28:	07 e0       	ldi	r16, 0x07	; 7
	{
		id <<= 1;
		if((id & 0x80))
			SDA_HIGH;
		else
			SDA_LOW;
     a2a:	0f 2e       	mov	r0, r31
     a2c:	f8 e3       	ldi	r31, 0x38	; 56
     a2e:	ef 2e       	mov	r14, r31
     a30:	ff 24       	eor	r15, r15
     a32:	f0 2d       	mov	r31, r0
		return 2;

	//Starting at 7 to avoid last bit
	for(i = 7; i > 0; i--)
	{
		id <<= 1;
     a34:	89 81       	ldd	r24, Y+1	; 0x01
     a36:	88 0f       	add	r24, r24
     a38:	89 83       	std	Y+1, r24	; 0x01
		if((id & 0x80))
     a3a:	89 81       	ldd	r24, Y+1	; 0x01
     a3c:	88 23       	and	r24, r24
     a3e:	2c f4       	brge	.+10     	; 0xa4a <i2c_device_id+0x48>
			SDA_HIGH;
     a40:	f7 01       	movw	r30, r14
     a42:	80 81       	ld	r24, Z
     a44:	81 60       	ori	r24, 0x01	; 1
     a46:	80 83       	st	Z, r24
     a48:	04 c0       	rjmp	.+8      	; 0xa52 <i2c_device_id+0x50>
		else
			SDA_LOW;
     a4a:	f7 01       	movw	r30, r14
     a4c:	80 81       	ld	r24, Z
     a4e:	8e 7f       	andi	r24, 0xFE	; 254
     a50:	80 83       	st	Z, r24
		//SDA = id & 0x80;	//Sends a 1 or 0 to SDA

		//Pulses the clock
		i2c_clock();
     a52:	a1 df       	rcall	.-190    	; 0x996 <i2c_clock>
	//check if valid i2c address
	if(id < 8 || id > 120)
		return 2;

	//Starting at 7 to avoid last bit
	for(i = 7; i > 0; i--)
     a54:	01 50       	subi	r16, 0x01	; 1
     a56:	71 f7       	brne	.-36     	; 0xa34 <i2c_device_id+0x32>
		i2c_clock();
	}
	//8th bit. pulses the read/write bit
	//rw low for write and high for read

	if(rw == 1)
     a58:	8a 81       	ldd	r24, Y+2	; 0x02
     a5a:	81 30       	cpi	r24, 0x01	; 1
     a5c:	31 f4       	brne	.+12     	; 0xa6a <i2c_device_id+0x68>
		SDA_HIGH;
     a5e:	e8 e3       	ldi	r30, 0x38	; 56
     a60:	f0 e0       	ldi	r31, 0x00	; 0
     a62:	80 81       	ld	r24, Z
     a64:	81 60       	ori	r24, 0x01	; 1
     a66:	80 83       	st	Z, r24
     a68:	05 c0       	rjmp	.+10     	; 0xa74 <i2c_device_id+0x72>
	else
		SDA_LOW;
     a6a:	e8 e3       	ldi	r30, 0x38	; 56
     a6c:	f0 e0       	ldi	r31, 0x00	; 0
     a6e:	80 81       	ld	r24, Z
     a70:	8e 7f       	andi	r24, 0xFE	; 254
     a72:	80 83       	st	Z, r24
	i2c_clock();
     a74:	90 df       	rcall	.-224    	; 0x996 <i2c_clock>
	//SDA = rw;
	
	//9th bit
	//set SDA to input
	DDRB &= ~(1 << PB0);	//set pin0 to input; turn off pin
     a76:	0f 2e       	mov	r0, r31
     a78:	f7 e3       	ldi	r31, 0x37	; 55
     a7a:	ef 2e       	mov	r14, r31
     a7c:	ff 24       	eor	r15, r15
     a7e:	f0 2d       	mov	r31, r0
     a80:	f7 01       	movw	r30, r14
     a82:	80 81       	ld	r24, Z
     a84:	8e 7f       	andi	r24, 0xFE	; 254
     a86:	80 83       	st	Z, r24
	SDA_HIGH;//PORTB |= (1 << PB0);	//enable pull up; turn on pin
     a88:	e8 e3       	ldi	r30, 0x38	; 56
     a8a:	f0 e0       	ldi	r31, 0x00	; 0
     a8c:	80 81       	ld	r24, Z
     a8e:	81 60       	ori	r24, 0x01	; 1
     a90:	80 83       	st	Z, r24
	ACK = (PINB & (1 << PB0));	//read pin
     a92:	86 b3       	in	r24, 0x16	; 22
     a94:	18 2f       	mov	r17, r24
     a96:	11 70       	andi	r17, 0x01	; 1

	i2c_clock();
     a98:	7e df       	rcall	.-260    	; 0x996 <i2c_clock>
	
	DDRB |= (1 << PB0);	//set pin0 to output
     a9a:	f7 01       	movw	r30, r14
     a9c:	80 81       	ld	r24, Z
     a9e:	81 60       	ori	r24, 0x01	; 1
     aa0:	80 83       	st	Z, r24
     aa2:	01 c0       	rjmp	.+2      	; 0xaa6 <i2c_device_id+0xa4>

	return ACK;
     aa4:	12 e0       	ldi	r17, 0x02	; 2
}
     aa6:	81 2f       	mov	r24, r17
     aa8:	0f 90       	pop	r0
     aaa:	0f 90       	pop	r0
     aac:	cf 91       	pop	r28
     aae:	df 91       	pop	r29
     ab0:	1f 91       	pop	r17
     ab2:	0f 91       	pop	r16
     ab4:	ff 90       	pop	r15
     ab6:	ef 90       	pop	r14
     ab8:	08 95       	ret

00000aba <i2c_read>:

unsigned char i2c_read(char last_byte)
{
     aba:	df 92       	push	r13
     abc:	ef 92       	push	r14
     abe:	ff 92       	push	r15
     ac0:	0f 93       	push	r16
     ac2:	1f 93       	push	r17
     ac4:	cf 93       	push	r28
     ac6:	df 93       	push	r29
     ac8:	d8 2e       	mov	r13, r24
	char i = 0, byte = 0;
	SDA_HIGH;
     aca:	e8 e3       	ldi	r30, 0x38	; 56
     acc:	f0 e0       	ldi	r31, 0x00	; 0
     ace:	80 81       	ld	r24, Z
     ad0:	81 60       	ori	r24, 0x01	; 1
     ad2:	80 83       	st	Z, r24
	
	DDRB &= ~(1 << PB0);	//set pin0 to input; turn off pin
     ad4:	a7 e3       	ldi	r26, 0x37	; 55
     ad6:	b0 e0       	ldi	r27, 0x00	; 0
     ad8:	8c 91       	ld	r24, X
     ada:	8e 7f       	andi	r24, 0xFE	; 254
     adc:	8c 93       	st	X, r24
	SDA_HIGH;				//enable pull up; turn on pin
     ade:	80 81       	ld	r24, Z
     ae0:	81 60       	ori	r24, 0x01	; 1
     ae2:	80 83       	st	Z, r24
     ae4:	18 e0       	ldi	r17, 0x08	; 8
     ae6:	00 e0       	ldi	r16, 0x00	; 0
	
	for(i = 8; i > 0; i--)
	{	
		SCL_HIGH;
     ae8:	c8 e3       	ldi	r28, 0x38	; 56
     aea:	d0 e0       	ldi	r29, 0x00	; 0
		byte <<= 1;

		//read pin
		
		//OR byte bit with SDA
		byte |= (PINB & (1<<PB0));
     aec:	0f 2e       	mov	r0, r31
     aee:	f6 e3       	ldi	r31, 0x36	; 54
     af0:	ef 2e       	mov	r14, r31
     af2:	ff 24       	eor	r15, r15
     af4:	f0 2d       	mov	r31, r0
	DDRB &= ~(1 << PB0);	//set pin0 to input; turn off pin
	SDA_HIGH;				//enable pull up; turn on pin
	
	for(i = 8; i > 0; i--)
	{	
		SCL_HIGH;
     af6:	88 81       	ld	r24, Y
     af8:	84 60       	ori	r24, 0x04	; 4
     afa:	88 83       	st	Y, r24
		byte <<= 1;

		//read pin
		
		//OR byte bit with SDA
		byte |= (PINB & (1<<PB0));
     afc:	f7 01       	movw	r30, r14
     afe:	80 81       	ld	r24, Z
     b00:	90 2f       	mov	r25, r16
     b02:	99 0f       	add	r25, r25
     b04:	81 70       	andi	r24, 0x01	; 1
     b06:	09 2f       	mov	r16, r25
     b08:	08 2b       	or	r16, r24

		i2c_clock();
     b0a:	45 df       	rcall	.-374    	; 0x996 <i2c_clock>
	SDA_HIGH;
	
	DDRB &= ~(1 << PB0);	//set pin0 to input; turn off pin
	SDA_HIGH;				//enable pull up; turn on pin
	
	for(i = 8; i > 0; i--)
     b0c:	11 50       	subi	r17, 0x01	; 1
     b0e:	99 f7       	brne	.-26     	; 0xaf6 <i2c_read+0x3c>
		//OR byte bit with SDA
		byte |= (PINB & (1<<PB0));

		i2c_clock();
	}
	DDRB |= (1 << PB0);	//set pin0 to output
     b10:	e7 e3       	ldi	r30, 0x37	; 55
     b12:	f0 e0       	ldi	r31, 0x00	; 0
     b14:	80 81       	ld	r24, Z
     b16:	81 60       	ori	r24, 0x01	; 1
     b18:	80 83       	st	Z, r24
	
	//9th bit master acknowledges data transfer or indicates last byte
	if(last_byte == 1)
     b1a:	f1 e0       	ldi	r31, 0x01	; 1
     b1c:	df 16       	cp	r13, r31
     b1e:	31 f4       	brne	.+12     	; 0xb2c <i2c_read+0x72>
		SDA_HIGH;
     b20:	e8 e3       	ldi	r30, 0x38	; 56
     b22:	f0 e0       	ldi	r31, 0x00	; 0
     b24:	80 81       	ld	r24, Z
     b26:	81 60       	ori	r24, 0x01	; 1
     b28:	80 83       	st	Z, r24
     b2a:	05 c0       	rjmp	.+10     	; 0xb36 <i2c_read+0x7c>
	else
		SDA_LOW;
     b2c:	e8 e3       	ldi	r30, 0x38	; 56
     b2e:	f0 e0       	ldi	r31, 0x00	; 0
     b30:	80 81       	ld	r24, Z
     b32:	8e 7f       	andi	r24, 0xFE	; 254
     b34:	80 83       	st	Z, r24
	//SDA = last_byte;
	
	i2c_clock();
     b36:	2f df       	rcall	.-418    	; 0x996 <i2c_clock>
	
	return byte;
}
     b38:	80 2f       	mov	r24, r16
     b3a:	df 91       	pop	r29
     b3c:	cf 91       	pop	r28
     b3e:	1f 91       	pop	r17
     b40:	0f 91       	pop	r16
     b42:	ff 90       	pop	r15
     b44:	ef 90       	pop	r14
     b46:	df 90       	pop	r13
     b48:	08 95       	ret

00000b4a <i2c_write>:

void i2c_write(unsigned char byte)
{
     b4a:	0f 93       	push	r16
     b4c:	1f 93       	push	r17
     b4e:	cf 93       	push	r28
     b50:	df 93       	push	r29
     b52:	08 2f       	mov	r16, r24
     b54:	18 e0       	ldi	r17, 0x08	; 8
	{
		//bit shifts data by i and ANDs it to convert it to boolean
		if((byte & 0x80))
			SDA_HIGH;
		else
			SDA_LOW;
     b56:	c8 e3       	ldi	r28, 0x38	; 56
     b58:	d0 e0       	ldi	r29, 0x00	; 0
{
	char i;
	for(i = 8; i > 0; i--)
	{
		//bit shifts data by i and ANDs it to convert it to boolean
		if((byte & 0x80))
     b5a:	00 23       	and	r16, r16
     b5c:	24 f4       	brge	.+8      	; 0xb66 <i2c_write+0x1c>
			SDA_HIGH;
     b5e:	88 81       	ld	r24, Y
     b60:	81 60       	ori	r24, 0x01	; 1
     b62:	88 83       	st	Y, r24
     b64:	03 c0       	rjmp	.+6      	; 0xb6c <i2c_write+0x22>
		else
			SDA_LOW;
     b66:	88 81       	ld	r24, Y
     b68:	8e 7f       	andi	r24, 0xFE	; 254
     b6a:	88 83       	st	Y, r24
		//SDA = byte & 0x80;	//Sends a 1 or 0 to SDA
		
		//pulse the clock
		i2c_clock();
     b6c:	14 df       	rcall	.-472    	; 0x996 <i2c_clock>
}

void i2c_write(unsigned char byte)
{
	char i;
	for(i = 8; i > 0; i--)
     b6e:	11 50       	subi	r17, 0x01	; 1
     b70:	11 f0       	breq	.+4      	; 0xb76 <i2c_write+0x2c>
		//SDA = byte & 0x80;	//Sends a 1 or 0 to SDA
		
		//pulse the clock
		i2c_clock();
		
		byte <<= 1;
     b72:	00 0f       	add	r16, r16
     b74:	f2 cf       	rjmp	.-28     	; 0xb5a <i2c_write+0x10>
	}
	
	//set to high to detect ack bit
	SDA_HIGH;
     b76:	e8 e3       	ldi	r30, 0x38	; 56
     b78:	f0 e0       	ldi	r31, 0x00	; 0
     b7a:	80 81       	ld	r24, Z
     b7c:	81 60       	ori	r24, 0x01	; 1
     b7e:	80 83       	st	Z, r24
	
	i2c_clock();
     b80:	0a df       	rcall	.-492    	; 0x996 <i2c_clock>

}
     b82:	df 91       	pop	r29
     b84:	cf 91       	pop	r28
     b86:	1f 91       	pop	r17
     b88:	0f 91       	pop	r16
     b8a:	08 95       	ret

00000b8c <adc_init>:
}

void adc_init()
{
	//VCC ref, PB4 input, ADLAR = 1
	ADMUX = (1 << MUX1);
     b8c:	e7 e2       	ldi	r30, 0x27	; 39
     b8e:	f0 e0       	ldi	r31, 0x00	; 0
     b90:	82 e0       	ldi	r24, 0x02	; 2
     b92:	80 83       	st	Z, r24
	ADMUX |= (1 << ADLAR);
     b94:	80 81       	ld	r24, Z
     b96:	80 62       	ori	r24, 0x20	; 32
     b98:	80 83       	st	Z, r24
			
	ADCSRA = (1 << ADEN);
     b9a:	e6 e2       	ldi	r30, 0x26	; 38
     b9c:	f0 e0       	ldi	r31, 0x00	; 0
     b9e:	80 e8       	ldi	r24, 0x80	; 128
     ba0:	80 83       	st	Z, r24
	ADCSRA |= (1 << ADPS2);
     ba2:	80 81       	ld	r24, Z
     ba4:	84 60       	ori	r24, 0x04	; 4
     ba6:	80 83       	st	Z, r24
	ADCSRA |= (1 << ADPS1);
     ba8:	80 81       	ld	r24, Z
     baa:	82 60       	ori	r24, 0x02	; 2
     bac:	80 83       	st	Z, r24
	
}
     bae:	08 95       	ret

00000bb0 <__vector_12>:

ISR(WDT_vect)
{
     bb0:	1f 92       	push	r1
     bb2:	0f 92       	push	r0
     bb4:	0f b6       	in	r0, 0x3f	; 63
     bb6:	0f 92       	push	r0
     bb8:	11 24       	eor	r1, r1
     bba:	8f 93       	push	r24
	wdt_disable();
     bbc:	88 e1       	ldi	r24, 0x18	; 24
     bbe:	0f b6       	in	r0, 0x3f	; 63
     bc0:	f8 94       	cli
     bc2:	81 bd       	out	0x21, r24	; 33
     bc4:	11 bc       	out	0x21, r1	; 33
     bc6:	0f be       	out	0x3f, r0	; 63
}
     bc8:	8f 91       	pop	r24
     bca:	0f 90       	pop	r0
     bcc:	0f be       	out	0x3f, r0	; 63
     bce:	0f 90       	pop	r0
     bd0:	1f 90       	pop	r1
     bd2:	18 95       	reti

00000bd4 <sleep>:

void sleep()
{
	
	ADCSRA = (0 << ADEN);	//turn off?
     bd4:	16 b8       	out	0x06, r1	; 6
	
	
	MCUSR &= ~(1<<WDRF);
     bd6:	e4 e5       	ldi	r30, 0x54	; 84
     bd8:	f0 e0       	ldi	r31, 0x00	; 0
     bda:	80 81       	ld	r24, Z
     bdc:	87 7f       	andi	r24, 0xF7	; 247
     bde:	80 83       	st	Z, r24
	
	WDTCR |= 0x18;	//enable watchdog
     be0:	e1 e4       	ldi	r30, 0x41	; 65
     be2:	f0 e0       	ldi	r31, 0x00	; 0
     be4:	80 81       	ld	r24, Z
     be6:	88 61       	ori	r24, 0x18	; 24
     be8:	80 83       	st	Z, r24

	WDTCR = 0x46;	//turn on interrupt
     bea:	86 e4       	ldi	r24, 0x46	; 70
     bec:	80 83       	st	Z, r24
	
	sei();	//enble interrupt
     bee:	78 94       	sei
	
	wdt_reset();
     bf0:	a8 95       	wdr
	set_sleep_mode(SLEEP_MODE_PWR_DOWN);
     bf2:	e5 e5       	ldi	r30, 0x55	; 85
     bf4:	f0 e0       	ldi	r31, 0x00	; 0
     bf6:	80 81       	ld	r24, Z
     bf8:	87 7e       	andi	r24, 0xE7	; 231
     bfa:	80 61       	ori	r24, 0x10	; 16
     bfc:	80 83       	st	Z, r24
	sleep_mode();
     bfe:	80 81       	ld	r24, Z
     c00:	80 62       	ori	r24, 0x20	; 32
     c02:	80 83       	st	Z, r24
     c04:	88 95       	sleep
     c06:	e5 e5       	ldi	r30, 0x55	; 85
     c08:	f0 e0       	ldi	r31, 0x00	; 0
     c0a:	80 81       	ld	r24, Z
     c0c:	8f 7d       	andi	r24, 0xDF	; 223
     c0e:	80 83       	st	Z, r24
	
	ADCSRA = (1 << ADEN);	//turn on ADC
     c10:	80 e8       	ldi	r24, 0x80	; 128
     c12:	86 b9       	out	0x06, r24	; 6
}
     c14:	08 95       	ret

00000c16 <battery>:
}

// 0 = empty
// 4 = full
void battery()
{
     c16:	1f 93       	push	r17
     c18:	cf 93       	push	r28
     c1a:	df 93       	push	r29
	unsigned char convert;
	
	//get ADC
	ADCSRA |= (1 << ADSC);
     c1c:	e6 e2       	ldi	r30, 0x26	; 38
     c1e:	f0 e0       	ldi	r31, 0x00	; 0
     c20:	80 81       	ld	r24, Z
     c22:	80 64       	ori	r24, 0x40	; 64
     c24:	80 83       	st	Z, r24
	while(ADCSRA & (1 << ADSC));	//wait till done
     c26:	80 81       	ld	r24, Z
     c28:	86 fd       	sbrc	r24, 6
     c2a:	fd cf       	rjmp	.-6      	; 0xc26 <battery+0x10>
	
	oled_setpos(OLEDX - 6,0);
     c2c:	89 e7       	ldi	r24, 0x79	; 121
     c2e:	60 e0       	ldi	r22, 0x00	; 0
     c30:	04 d1       	rcall	.+520    	; 0xe3a <oled_setpos>

	//2V-3.3V
	if(ADCH < 255 && ADCH > 213)	//full
     c32:	85 b1       	in	r24, 0x05	; 5
     c34:	8f 3f       	cpi	r24, 0xFF	; 255
     c36:	09 f0       	breq	.+2      	; 0xc3a <battery+0x24>
     c38:	85 b1       	in	r24, 0x05	; 5
		convert = 4;
		
	if(ADCH < 213 && ADCH > 192)	//75%
     c3a:	85 b1       	in	r24, 0x05	; 5
     c3c:	85 3d       	cpi	r24, 0xD5	; 213
     c3e:	28 f4       	brcc	.+10     	; 0xc4a <battery+0x34>
     c40:	85 b1       	in	r24, 0x05	; 5
     c42:	81 3c       	cpi	r24, 0xC1	; 193
     c44:	10 f0       	brcs	.+4      	; 0xc4a <battery+0x34>
     c46:	23 e0       	ldi	r18, 0x03	; 3
     c48:	01 c0       	rjmp	.+2      	; 0xc4c <battery+0x36>
     c4a:	24 e0       	ldi	r18, 0x04	; 4
		convert = 3;
		
	if(ADCH < 192 && ADCH > 171)	//50%
     c4c:	85 b1       	in	r24, 0x05	; 5
     c4e:	80 3c       	cpi	r24, 0xC0	; 192
     c50:	20 f4       	brcc	.+8      	; 0xc5a <battery+0x44>
     c52:	85 b1       	in	r24, 0x05	; 5
     c54:	8c 3a       	cpi	r24, 0xAC	; 172
     c56:	08 f0       	brcs	.+2      	; 0xc5a <battery+0x44>
     c58:	22 e0       	ldi	r18, 0x02	; 2
		convert = 2;
	
	if(ADCH < 171 && ADCH > 150)	//25%
     c5a:	85 b1       	in	r24, 0x05	; 5
     c5c:	8b 3a       	cpi	r24, 0xAB	; 171
     c5e:	20 f4       	brcc	.+8      	; 0xc68 <battery+0x52>
     c60:	85 b1       	in	r24, 0x05	; 5
     c62:	87 39       	cpi	r24, 0x97	; 151
     c64:	08 f0       	brcs	.+2      	; 0xc68 <battery+0x52>
     c66:	21 e0       	ldi	r18, 0x01	; 1
		convert = 1;
	
	if(ADCH < 150)	//ded @2V
     c68:	85 b1       	in	r24, 0x05	; 5
     c6a:	86 39       	cpi	r24, 0x96	; 150
     c6c:	08 f4       	brcc	.+2      	; 0xc70 <battery+0x5a>
     c6e:	20 e0       	ldi	r18, 0x00	; 0
     c70:	30 e0       	ldi	r19, 0x00	; 0
     c72:	c9 01       	movw	r24, r18
     c74:	88 0f       	add	r24, r24
     c76:	99 1f       	adc	r25, r25
     c78:	82 0f       	add	r24, r18
     c7a:	93 1f       	adc	r25, r19
     c7c:	88 0f       	add	r24, r24
     c7e:	99 1f       	adc	r25, r25
     c80:	ec 01       	movw	r28, r24
     c82:	c2 5e       	subi	r28, 0xE2	; 226
     c84:	df 4f       	sbci	r29, 0xFF	; 255
     c86:	10 e0       	ldi	r17, 0x00	; 0
		convert = 0;

	for(char i = 0; i < 6; i++)
	{
		oled_data(pgm_read_byte(&oled_customChar[convert * 6 + i]));
     c88:	fe 01       	movw	r30, r28
     c8a:	84 91       	lpm	r24, Z+
     c8c:	bc d0       	rcall	.+376    	; 0xe06 <oled_data>
		convert = 1;
	
	if(ADCH < 150)	//ded @2V
		convert = 0;

	for(char i = 0; i < 6; i++)
     c8e:	1f 5f       	subi	r17, 0xFF	; 255
     c90:	21 96       	adiw	r28, 0x01	; 1
     c92:	16 30       	cpi	r17, 0x06	; 6
     c94:	c9 f7       	brne	.-14     	; 0xc88 <battery+0x72>
	{
		oled_data(pgm_read_byte(&oled_customChar[convert * 6 + i]));
	}
}
     c96:	df 91       	pop	r29
     c98:	cf 91       	pop	r28
     c9a:	1f 91       	pop	r17
     c9c:	08 95       	ret

00000c9e <splash_screen>:

void splash_screen()
{
	//bitmap image
	
	oled_setpos((OLEDMID - 16), 6);
     c9e:	80 e3       	ldi	r24, 0x30	; 48
     ca0:	66 e0       	ldi	r22, 0x06	; 6
     ca2:	cb d0       	rcall	.+406    	; 0xe3a <oled_setpos>
	oled_write_string("Matthew Whiteley");
     ca4:	80 e6       	ldi	r24, 0x60	; 96
     ca6:	90 e0       	ldi	r25, 0x00	; 0
     ca8:	3e d1       	rcall	.+636    	; 0xf26 <oled_write_string>
	
	oled_setpos((OLEDMID - strlen(VERSION)), 7);
     caa:	8c e3       	ldi	r24, 0x3C	; 60
     cac:	67 e0       	ldi	r22, 0x07	; 7
     cae:	c5 d0       	rcall	.+394    	; 0xe3a <oled_setpos>
	oled_write_string(VERSION);
     cb0:	81 e7       	ldi	r24, 0x71	; 113
     cb2:	90 e0       	ldi	r25, 0x00	; 0
     cb4:	38 d1       	rcall	.+624    	; 0xf26 <oled_write_string>
	
	oled_setpos((OLEDRIGHT - strlen(DATE)), 7);
     cb6:	87 e7       	ldi	r24, 0x77	; 119
     cb8:	67 e0       	ldi	r22, 0x07	; 7
     cba:	bf d0       	rcall	.+382    	; 0xe3a <oled_setpos>
	oled_write_string(DATE);
     cbc:	86 e7       	ldi	r24, 0x76	; 118
     cbe:	90 e0       	ldi	r25, 0x00	; 0
     cc0:	32 d1       	rcall	.+612    	; 0xf26 <oled_write_string>
	
	
}
     cc2:	08 95       	ret

00000cc4 <display>:

void display()
{
     cc4:	ef 92       	push	r14
     cc6:	ff 92       	push	r15
     cc8:	0f 93       	push	r16
     cca:	1f 93       	push	r17
	//short bmpTemp;
	//char INTbmpTemp;
	unsigned long bmpPressure;
	
	bmp280GetTemp();
     ccc:	16 dd       	rcall	.-1492   	; 0x6fa <bmp280GetTemp>
	//bmpTemp = bmp280GetTemp();
	//INTbmpTemp = bmpTemp / 100;
	bmpPressure = bmp280GetPressure();
     cce:	12 db       	rcall	.-2524   	; 0x2f4 <bmp280GetPressure>
     cd0:	7b 01       	movw	r14, r22
     cd2:	8c 01       	movw	r16, r24
	
	oled_setpos(0,1);
     cd4:	80 e0       	ldi	r24, 0x00	; 0
     cd6:	61 e0       	ldi	r22, 0x01	; 1
     cd8:	b0 d0       	rcall	.+352    	; 0xe3a <oled_setpos>
	
	oled_write_string("Temperature: ");
     cda:	8f e7       	ldi	r24, 0x7F	; 127
     cdc:	90 e0       	ldi	r25, 0x00	; 0
     cde:	23 d1       	rcall	.+582    	; 0xf26 <oled_write_string>
	oled_write_int((char)sht_temp());
     ce0:	30 d1       	rcall	.+608    	; 0xf42 <sht_temp>
     ce2:	12 d1       	rcall	.+548    	; 0xf08 <oled_write_int>
	oled_write_string("*C");
     ce4:	8d e8       	ldi	r24, 0x8D	; 141
     ce6:	90 e0       	ldi	r25, 0x00	; 0
     ce8:	1e d1       	rcall	.+572    	; 0xf26 <oled_write_string>
	
	oled_setpos(0,3);
     cea:	80 e0       	ldi	r24, 0x00	; 0
     cec:	63 e0       	ldi	r22, 0x03	; 3
     cee:	a5 d0       	rcall	.+330    	; 0xe3a <oled_setpos>
	
	oled_write_string("Humidity: ");
     cf0:	80 e9       	ldi	r24, 0x90	; 144
     cf2:	90 e0       	ldi	r25, 0x00	; 0
     cf4:	18 d1       	rcall	.+560    	; 0xf26 <oled_write_string>
	oled_write_int((char)sht_humidity());
     cf6:	61 d1       	rcall	.+706    	; 0xfba <sht_humidity>
     cf8:	07 d1       	rcall	.+526    	; 0xf08 <oled_write_int>
	oled_write_string("%RH");
     cfa:	8b e9       	ldi	r24, 0x9B	; 155
     cfc:	90 e0       	ldi	r25, 0x00	; 0
     cfe:	13 d1       	rcall	.+550    	; 0xf26 <oled_write_string>
	oled_write_int((INTbmpTemp));
	oled_write_char('.');
	oled_write_int((bmpTemp % 100));
	*/
			
	oled_setpos(0,5);
     d00:	80 e0       	ldi	r24, 0x00	; 0
     d02:	65 e0       	ldi	r22, 0x05	; 5
     d04:	9a d0       	rcall	.+308    	; 0xe3a <oled_setpos>
	oled_write_string("Pressure: ");
     d06:	8f e9       	ldi	r24, 0x9F	; 159
     d08:	90 e0       	ldi	r25, 0x00	; 0
     d0a:	0d d1       	rcall	.+538    	; 0xf26 <oled_write_string>
	oled_write_int(bmpPressure / 1000);
     d0c:	c8 01       	movw	r24, r16
     d0e:	b7 01       	movw	r22, r14
     d10:	28 ee       	ldi	r18, 0xE8	; 232
     d12:	33 e0       	ldi	r19, 0x03	; 3
     d14:	40 e0       	ldi	r20, 0x00	; 0
     d16:	50 e0       	ldi	r21, 0x00	; 0
     d18:	7e d3       	rcall	.+1788   	; 0x1416 <__udivmodsi4>
     d1a:	82 2f       	mov	r24, r18
     d1c:	f5 d0       	rcall	.+490    	; 0xf08 <oled_write_int>
	oled_write_int((bmpPressure % 1000) / 100);
     d1e:	c8 01       	movw	r24, r16
     d20:	b7 01       	movw	r22, r14
     d22:	28 ee       	ldi	r18, 0xE8	; 232
     d24:	33 e0       	ldi	r19, 0x03	; 3
     d26:	40 e0       	ldi	r20, 0x00	; 0
     d28:	50 e0       	ldi	r21, 0x00	; 0
     d2a:	75 d3       	rcall	.+1770   	; 0x1416 <__udivmodsi4>
     d2c:	24 e6       	ldi	r18, 0x64	; 100
     d2e:	30 e0       	ldi	r19, 0x00	; 0
     d30:	40 e0       	ldi	r20, 0x00	; 0
     d32:	50 e0       	ldi	r21, 0x00	; 0
     d34:	70 d3       	rcall	.+1760   	; 0x1416 <__udivmodsi4>
     d36:	82 2f       	mov	r24, r18
     d38:	e7 d0       	rcall	.+462    	; 0xf08 <oled_write_int>
	oled_write_char('.');
     d3a:	8e e2       	ldi	r24, 0x2E	; 46
     d3c:	ae d0       	rcall	.+348    	; 0xe9a <oled_write_char>
	if((bmpPressure % 100) < 10)
     d3e:	c8 01       	movw	r24, r16
     d40:	b7 01       	movw	r22, r14
     d42:	24 e6       	ldi	r18, 0x64	; 100
     d44:	30 e0       	ldi	r19, 0x00	; 0
     d46:	40 e0       	ldi	r20, 0x00	; 0
     d48:	50 e0       	ldi	r21, 0x00	; 0
     d4a:	65 d3       	rcall	.+1738   	; 0x1416 <__udivmodsi4>
     d4c:	37 2f       	mov	r19, r23
     d4e:	48 2f       	mov	r20, r24
     d50:	59 2f       	mov	r21, r25
     d52:	86 2f       	mov	r24, r22
     d54:	93 2f       	mov	r25, r19
     d56:	a4 2f       	mov	r26, r20
     d58:	b5 2f       	mov	r27, r21
     d5a:	7c 01       	movw	r14, r24
     d5c:	8d 01       	movw	r16, r26
     d5e:	8a e0       	ldi	r24, 0x0A	; 10
     d60:	e8 16       	cp	r14, r24
     d62:	f1 04       	cpc	r15, r1
     d64:	01 05       	cpc	r16, r1
     d66:	11 05       	cpc	r17, r1
     d68:	10 f4       	brcc	.+4      	; 0xd6e <display+0xaa>
		oled_write_char('0');
     d6a:	80 e3       	ldi	r24, 0x30	; 48
     d6c:	96 d0       	rcall	.+300    	; 0xe9a <oled_write_char>
	oled_write_int(bmpPressure % 100);	//add <10 check thing
     d6e:	8e 2d       	mov	r24, r14
     d70:	cb d0       	rcall	.+406    	; 0xf08 <oled_write_int>
	oled_write_string("HPa");
     d72:	8a ea       	ldi	r24, 0xAA	; 170
     d74:	90 e0       	ldi	r25, 0x00	; 0
     d76:	d7 d0       	rcall	.+430    	; 0xf26 <oled_write_string>
	
	//oled_setpos(OLEDX - 4, 7);
	//oled_write_string(VERSION);
}
     d78:	1f 91       	pop	r17
     d7a:	0f 91       	pop	r16
     d7c:	ff 90       	pop	r15
     d7e:	ef 90       	pop	r14
     d80:	08 95       	ret

00000d82 <main>:
	
	ADCSRA = (1 << ADEN);	//turn on ADC
}

int main(void)
{
     d82:	0f 93       	push	r16
     d84:	1f 93       	push	r17
     d86:	cf 93       	push	r28
     d88:	df 93       	push	r29
    milliseconds can be achieved.
 */
void
_delay_loop_2(uint16_t __count)
{
	__asm__ volatile (
     d8a:	88 ea       	ldi	r24, 0xA8	; 168
     d8c:	91 e6       	ldi	r25, 0x61	; 97
     d8e:	01 97       	sbiw	r24, 0x01	; 1
     d90:	f1 f7       	brne	.-4      	; 0xd8e <main+0xc>
	_delay_ms(100);	//delay to let voltage stablise
	
	DDRB |= (1 << PB4); //set led to output
     d92:	e7 e3       	ldi	r30, 0x37	; 55
     d94:	f0 e0       	ldi	r31, 0x00	; 0
     d96:	80 81       	ld	r24, Z
     d98:	80 61       	ori	r24, 0x10	; 16
     d9a:	80 83       	st	Z, r24
	PORTB = 0xFF;	//turn on all pullups
     d9c:	8f ef       	ldi	r24, 0xFF	; 255
     d9e:	88 bb       	out	0x18, r24	; 24
	
	adc_init();
     da0:	f5 de       	rcall	.-534    	; 0xb8c <adc_init>
	init_i2c();
     da2:	e8 dd       	rcall	.-1072   	; 0x974 <init_i2c>
     da4:	cc e3       	ldi	r28, 0x3C	; 60
     da6:	d0 e0       	ldi	r29, 0x00	; 0
	
	//start up OLED
	for (uint8_t i = 0; i < sizeof (ssd1306_init_sequence); i++) {
     da8:	08 e5       	ldi	r16, 0x58	; 88
     daa:	10 e0       	ldi	r17, 0x00	; 0
		oled_control(pgm_read_byte(&ssd1306_init_sequence[i]));
     dac:	fe 01       	movw	r30, r28
     dae:	84 91       	lpm	r24, Z+
     db0:	37 d0       	rcall	.+110    	; 0xe20 <oled_control>
     db2:	21 96       	adiw	r28, 0x01	; 1
	
	adc_init();
	init_i2c();
	
	//start up OLED
	for (uint8_t i = 0; i < sizeof (ssd1306_init_sequence); i++) {
     db4:	c0 17       	cp	r28, r16
     db6:	d1 07       	cpc	r29, r17
     db8:	c9 f7       	brne	.-14     	; 0xdac <main+0x2a>
		oled_control(pgm_read_byte(&ssd1306_init_sequence[i]));
	}
	
	if(eeprom_read_byte((uint8_t*)0x00) == 0xFF)	//if new ATTINY
     dba:	80 e0       	ldi	r24, 0x00	; 0
     dbc:	90 e0       	ldi	r25, 0x00	; 0
     dbe:	4d d3       	rcall	.+1690   	; 0x145a <__eerd_byte_tn85>
     dc0:	8f 3f       	cpi	r24, 0xFF	; 255
     dc2:	29 f4       	brne	.+10     	; 0xdce <main+0x4c>
	{
		bmpCalibration();	//run calibration to save data in EEPROM
     dc4:	6f dd       	rcall	.-1314   	; 0x8a4 <bmpCalibration>
		eeprom_write_byte(0, 0);
     dc6:	80 e0       	ldi	r24, 0x00	; 0
     dc8:	90 e0       	ldi	r25, 0x00	; 0
     dca:	60 e0       	ldi	r22, 0x00	; 0
     dcc:	53 d3       	rcall	.+1702   	; 0x1474 <__eewr_byte_tn85>
	}

	bmpReset();
     dce:	84 da       	rcall	.-2808   	; 0x2d8 <bmpReset>
	
	//setting up sampling parameters
	bmpSet(0x64, CONFIG); //standby time = 250ms, IIR filter =
     dd0:	84 e6       	ldi	r24, 0x64	; 100
     dd2:	65 ef       	ldi	r22, 0xF5	; 245
     dd4:	71 da       	rcall	.-2846   	; 0x2b8 <bmpSet>
	bmpSet(0xFF, CTRL_MEAS); //x16 temperature oversampling, x16 pressure measurement, normal mode
     dd6:	8f ef       	ldi	r24, 0xFF	; 255
     dd8:	64 ef       	ldi	r22, 0xF4	; 244
     dda:	6e da       	rcall	.-2852   	; 0x2b8 <bmpSet>


	//change contrast to 0 (lowest)
	oled_control(0x81);
     ddc:	81 e8       	ldi	r24, 0x81	; 129
     dde:	20 d0       	rcall	.+64     	; 0xe20 <oled_control>
	oled_control(0x00);
     de0:	80 e0       	ldi	r24, 0x00	; 0
     de2:	1e d0       	rcall	.+60     	; 0xe20 <oled_control>
	
	//clear oled of random data
	oled_clear();
     de4:	3f d0       	rcall	.+126    	; 0xe64 <oled_clear>
	
	splash_screen();
     de6:	5b df       	rcall	.-330    	; 0xc9e <splash_screen>
     de8:	20 e1       	ldi	r18, 0x10	; 16
     dea:	37 e2       	ldi	r19, 0x27	; 39
     dec:	49 e1       	ldi	r20, 0x19	; 25
     dee:	50 e0       	ldi	r21, 0x00	; 0
     df0:	ca 01       	movw	r24, r20
     df2:	01 97       	sbiw	r24, 0x01	; 1
     df4:	f1 f7       	brne	.-4      	; 0xdf2 <main+0x70>
		__ticks = (uint16_t) (__ms * 10.0);
		while(__ticks)
		{
			// wait 1/10 ms
			_delay_loop_2(((F_CPU) / 4e3) / 10);
			__ticks --;
     df6:	21 50       	subi	r18, 0x01	; 1
     df8:	30 40       	sbci	r19, 0x00	; 0
		__ticks = 1;
	else if (__tmp > 65535)
	{
		//	__ticks = requested delay in 1/10 ms
		__ticks = (uint16_t) (__ms * 10.0);
		while(__ticks)
     dfa:	d1 f7       	brne	.-12     	; 0xdf0 <main+0x6e>
	_delay_ms(1000);
	oled_clear();
     dfc:	33 d0       	rcall	.+102    	; 0xe64 <oled_clear>
	
    while(1)
    {
		//check battery level
		battery();
     dfe:	0b df       	rcall	.-490    	; 0xc16 <battery>

		//display data
		display();
     e00:	61 df       	rcall	.-318    	; 0xcc4 <display>
		
		//sleep for 1 sec
		sleep();
     e02:	e8 de       	rcall	.-560    	; 0xbd4 <sleep>
     e04:	fc cf       	rjmp	.-8      	; 0xdfe <main+0x7c>

00000e06 <oled_data>:
}

/*send data to oled
*/
void oled_data(char data)
{
     e06:	1f 93       	push	r17
     e08:	18 2f       	mov	r17, r24
	//oled_checkposx();	//check if data in range
	
	i2c_start();
     e0a:	d1 dd       	rcall	.-1118   	; 0x9ae <i2c_start>
	i2c_device_id(OLED, WRITE);
     e0c:	8c e3       	ldi	r24, 0x3C	; 60
     e0e:	60 e0       	ldi	r22, 0x00	; 0
     e10:	f8 dd       	rcall	.-1040   	; 0xa02 <i2c_device_id>
	i2c_write(OLED_DATA);		//DATA byte
     e12:	80 e4       	ldi	r24, 0x40	; 64
     e14:	9a de       	rcall	.-716    	; 0xb4a <i2c_write>
	i2c_write(data);
     e16:	81 2f       	mov	r24, r17
     e18:	98 de       	rcall	.-720    	; 0xb4a <i2c_write>
	i2c_stop();
     e1a:	de dd       	rcall	.-1092   	; 0x9d8 <i2c_stop>
}
     e1c:	1f 91       	pop	r17
     e1e:	08 95       	ret

00000e20 <oled_control>:
}

/*send commands to oled
*/
void oled_control(char command)
{
     e20:	1f 93       	push	r17
     e22:	18 2f       	mov	r17, r24
	i2c_start();
     e24:	c4 dd       	rcall	.-1144   	; 0x9ae <i2c_start>
	i2c_device_id(OLED, WRITE);
     e26:	8c e3       	ldi	r24, 0x3C	; 60
     e28:	60 e0       	ldi	r22, 0x00	; 0
     e2a:	eb dd       	rcall	.-1066   	; 0xa02 <i2c_device_id>
	i2c_write(OLED_COMMAND);		//control byte
     e2c:	80 e0       	ldi	r24, 0x00	; 0
     e2e:	8d de       	rcall	.-742    	; 0xb4a <i2c_write>
	i2c_write(command);	
     e30:	81 2f       	mov	r24, r17
     e32:	8b de       	rcall	.-746    	; 0xb4a <i2c_write>
	i2c_stop();
     e34:	d1 dd       	rcall	.-1118   	; 0x9d8 <i2c_stop>
}
     e36:	1f 91       	pop	r17
     e38:	08 95       	ret

00000e3a <oled_setpos>:
{
	//for()
}

void oled_setpos(char x, char y)
{
     e3a:	0f 93       	push	r16
     e3c:	1f 93       	push	r17
     e3e:	18 2f       	mov	r17, r24
     e40:	06 2f       	mov	r16, r22
	x &= 0x7F;	//ensure inputted x value doesn't go over 127
	y &= 0x7;	//ensure inputted value doesn't go over 7
	
	//add data verification
	oled_control(OLED_COLUMNADDR);
     e42:	81 e2       	ldi	r24, 0x21	; 33
     e44:	ed df       	rcall	.-38     	; 0xe20 <oled_control>
	oled_control(x);
     e46:	81 2f       	mov	r24, r17
     e48:	8f 77       	andi	r24, 0x7F	; 127
     e4a:	ea df       	rcall	.-44     	; 0xe20 <oled_control>
	oled_control(127);
     e4c:	8f e7       	ldi	r24, 0x7F	; 127
     e4e:	e8 df       	rcall	.-48     	; 0xe20 <oled_control>
	
	oled_control(OLED_PAGEADDR);
     e50:	82 e2       	ldi	r24, 0x22	; 34
     e52:	e6 df       	rcall	.-52     	; 0xe20 <oled_control>
	oled_control(y);
     e54:	80 2f       	mov	r24, r16
     e56:	87 70       	andi	r24, 0x07	; 7
     e58:	e3 df       	rcall	.-58     	; 0xe20 <oled_control>
	oled_control(7);
     e5a:	87 e0       	ldi	r24, 0x07	; 7
     e5c:	e1 df       	rcall	.-62     	; 0xe20 <oled_control>
}
     e5e:	1f 91       	pop	r17
     e60:	0f 91       	pop	r16
     e62:	08 95       	ret

00000e64 <oled_clear>:
}

/*clears the display with blank
*/
void oled_clear()
{
     e64:	ff 92       	push	r15
     e66:	0f 93       	push	r16
     e68:	1f 93       	push	r17
	unsigned char page, x;
	
	oled_setpos(0, 0);
     e6a:	80 e0       	ldi	r24, 0x00	; 0
     e6c:	60 e0       	ldi	r22, 0x00	; 0
     e6e:	e5 df       	rcall	.-54     	; 0xe3a <oled_setpos>
     e70:	ff 24       	eor	r15, r15
	{
		for(x = 0; x <= OLEDX; x++)
			oled_data(0x00);
	}
	oled_setpos(0, 0);
}
     e72:	00 e0       	ldi	r16, 0x00	; 0
     e74:	10 c0       	rjmp	.+32     	; 0xe96 <oled_clear+0x32>
	oled_setpos(0, 0);
	
	for(page = 0; page <= OLEDY; page++)
	{
		for(x = 0; x <= OLEDX; x++)
			oled_data(0x00);
     e76:	80 2f       	mov	r24, r16
     e78:	c6 df       	rcall	.-116    	; 0xe06 <oled_data>
	
	oled_setpos(0, 0);
	
	for(page = 0; page <= OLEDY; page++)
	{
		for(x = 0; x <= OLEDX; x++)
     e7a:	1f 5f       	subi	r17, 0xFF	; 255
     e7c:	10 38       	cpi	r17, 0x80	; 128
     e7e:	d9 f7       	brne	.-10     	; 0xe76 <oled_clear+0x12>
{
	unsigned char page, x;
	
	oled_setpos(0, 0);
	
	for(page = 0; page <= OLEDY; page++)
     e80:	f3 94       	inc	r15
     e82:	88 e0       	ldi	r24, 0x08	; 8
     e84:	f8 16       	cp	r15, r24
     e86:	39 f4       	brne	.+14     	; 0xe96 <oled_clear+0x32>
	{
		for(x = 0; x <= OLEDX; x++)
			oled_data(0x00);
	}
	oled_setpos(0, 0);
     e88:	80 e0       	ldi	r24, 0x00	; 0
     e8a:	60 e0       	ldi	r22, 0x00	; 0
     e8c:	d6 df       	rcall	.-84     	; 0xe3a <oled_setpos>
}
     e8e:	1f 91       	pop	r17
     e90:	0f 91       	pop	r16
     e92:	ff 90       	pop	r15
     e94:	08 95       	ret
     e96:	10 2f       	mov	r17, r16
     e98:	ee cf       	rjmp	.-36     	; 0xe76 <oled_clear+0x12>

00000e9a <oled_write_char>:
	i2c_write(data);
	i2c_stop();
}

void oled_write_char(char ch)
{
     e9a:	1f 93       	push	r17
     e9c:	cf 93       	push	r28
     e9e:	df 93       	push	r29
     ea0:	18 2f       	mov	r17, r24
	//oled_checkposx();
	
	if(ch == '\n')	//go to newline
     ea2:	8a 30       	cpi	r24, 0x0A	; 10
     ea4:	89 f4       	brne	.+34     	; 0xec8 <oled_write_char+0x2e>
	{
		if(pos_y < 8)
     ea6:	60 91 b6 00 	lds	r22, 0x00B6
     eaa:	68 30       	cpi	r22, 0x08	; 8
     eac:	30 f4       	brcc	.+12     	; 0xeba <oled_write_char+0x20>
			oled_setpos(0, ++pos_y);
     eae:	6f 5f       	subi	r22, 0xFF	; 255
     eb0:	60 93 b6 00 	sts	0x00B6, r22
     eb4:	80 e0       	ldi	r24, 0x00	; 0
     eb6:	c1 df       	rcall	.-126    	; 0xe3a <oled_setpos>
     eb8:	23 c0       	rjmp	.+70     	; 0xf00 <oled_write_char+0x66>
		else
		{
			pos_y = 0;
			oled_setpos(0, ++pos_y);
     eba:	81 e0       	ldi	r24, 0x01	; 1
     ebc:	80 93 b6 00 	sts	0x00B6, r24
     ec0:	80 e0       	ldi	r24, 0x00	; 0
     ec2:	61 e0       	ldi	r22, 0x01	; 1
     ec4:	ba df       	rcall	.-140    	; 0xe3a <oled_setpos>
     ec6:	1c c0       	rjmp	.+56     	; 0xf00 <oled_write_char+0x66>
		return;
	}
	
	//convert ASCII to map address
	ch -= 32;
	i2c_start();
     ec8:	72 dd       	rcall	.-1308   	; 0x9ae <i2c_start>
	i2c_device_id(OLED, WRITE);
     eca:	8c e3       	ldi	r24, 0x3C	; 60
     ecc:	60 e0       	ldi	r22, 0x00	; 0
     ece:	99 dd       	rcall	.-1230   	; 0xa02 <i2c_device_id>
	i2c_write(OLED_DATA);
     ed0:	80 e4       	ldi	r24, 0x40	; 64
     ed2:	3b de       	rcall	.-906    	; 0xb4a <i2c_write>
     ed4:	21 2f       	mov	r18, r17
     ed6:	20 52       	subi	r18, 0x20	; 32
     ed8:	30 e0       	ldi	r19, 0x00	; 0
     eda:	c9 01       	movw	r24, r18
     edc:	88 0f       	add	r24, r24
     ede:	99 1f       	adc	r25, r25
     ee0:	82 0f       	add	r24, r18
     ee2:	93 1f       	adc	r25, r19
     ee4:	88 0f       	add	r24, r24
     ee6:	99 1f       	adc	r25, r25
     ee8:	ec 01       	movw	r28, r24
     eea:	c8 5a       	subi	r28, 0xA8	; 168
     eec:	df 4f       	sbci	r29, 0xFF	; 255
     eee:	10 e0       	ldi	r17, 0x00	; 0

	for (char i= 0; i < 6; i++)
	{
		i2c_write(pgm_read_byte(&oled_font6x8[ch * 6 + i]));	//*6 to select char, i increments through 
     ef0:	fe 01       	movw	r30, r28
     ef2:	84 91       	lpm	r24, Z+
     ef4:	2a de       	rcall	.-940    	; 0xb4a <i2c_write>
	ch -= 32;
	i2c_start();
	i2c_device_id(OLED, WRITE);
	i2c_write(OLED_DATA);

	for (char i= 0; i < 6; i++)
     ef6:	1f 5f       	subi	r17, 0xFF	; 255
     ef8:	21 96       	adiw	r28, 0x01	; 1
     efa:	16 30       	cpi	r17, 0x06	; 6
     efc:	c9 f7       	brne	.-14     	; 0xef0 <oled_write_char+0x56>
	{
		i2c_write(pgm_read_byte(&oled_font6x8[ch * 6 + i]));	//*6 to select char, i increments through 
	}
	i2c_stop();
     efe:	6c dd       	rcall	.-1320   	; 0x9d8 <i2c_stop>
}
     f00:	df 91       	pop	r29
     f02:	cf 91       	pop	r28
     f04:	1f 91       	pop	r17
     f06:	08 95       	ret

00000f08 <oled_write_int>:
	}
	//oled_write_char(pos_x);
}

void oled_write_int(unsigned char value)
{
     f08:	cf 93       	push	r28
     f0a:	df 93       	push	r29

	char *arr;
	
	arr = convert(value);
     f0c:	a5 d0       	rcall	.+330    	; 0x1058 <convert>
     f0e:	ec 01       	movw	r28, r24
	
	while(*arr != '\0')
     f10:	88 81       	ld	r24, Y
     f12:	88 23       	and	r24, r24
     f14:	29 f0       	breq	.+10     	; 0xf20 <oled_write_int+0x18>
		oled_write_char(*arr++);
     f16:	21 96       	adiw	r28, 0x01	; 1
     f18:	c0 df       	rcall	.-128    	; 0xe9a <oled_write_char>

	char *arr;
	
	arr = convert(value);
	
	while(*arr != '\0')
     f1a:	88 81       	ld	r24, Y
     f1c:	88 23       	and	r24, r24
     f1e:	d9 f7       	brne	.-10     	; 0xf16 <oled_write_int+0xe>
		oled_write_char(*arr++);
     f20:	df 91       	pop	r29
     f22:	cf 91       	pop	r28
     f24:	08 95       	ret

00000f26 <oled_write_string>:
	}
	i2c_stop();
}

void oled_write_string(char *str)
{
     f26:	cf 93       	push	r28
     f28:	df 93       	push	r29
     f2a:	ec 01       	movw	r28, r24
	while(*str)
     f2c:	88 81       	ld	r24, Y
     f2e:	88 23       	and	r24, r24
     f30:	29 f0       	breq	.+10     	; 0xf3c <oled_write_string+0x16>
	{
		oled_write_char(*str++);
     f32:	21 96       	adiw	r28, 0x01	; 1
     f34:	b2 df       	rcall	.-156    	; 0xe9a <oled_write_char>
	i2c_stop();
}

void oled_write_string(char *str)
{
	while(*str)
     f36:	88 81       	ld	r24, Y
     f38:	88 23       	and	r24, r24
     f3a:	d9 f7       	brne	.-10     	; 0xf32 <oled_write_string+0xc>
	{
		oled_write_char(*str++);
	}
	//oled_write_char(pos_x);
}
     f3c:	df 91       	pop	r29
     f3e:	cf 91       	pop	r28
     f40:	08 95       	ret

00000f42 <sht_temp>:

	return humidity;
}

char sht_temp()
{
     f42:	ef 92       	push	r14
     f44:	ff 92       	push	r15
     f46:	0f 93       	push	r16
     f48:	1f 93       	push	r17
	unsigned short raw_temp;
	float temp;
	
	i2c_start();
     f4a:	31 dd       	rcall	.-1438   	; 0x9ae <i2c_start>
	i2c_device_id(SHT, WRITE);
     f4c:	80 e4       	ldi	r24, 0x40	; 64
     f4e:	60 e0       	ldi	r22, 0x00	; 0
     f50:	58 dd       	rcall	.-1360   	; 0xa02 <i2c_device_id>
	i2c_write(0xF3);	//temp E3
     f52:	83 ef       	ldi	r24, 0xF3	; 243
     f54:	fa dd       	rcall	.-1036   	; 0xb4a <i2c_write>
     f56:	88 ea       	ldi	r24, 0xA8	; 168
     f58:	91 e6       	ldi	r25, 0x61	; 97
     f5a:	01 97       	sbiw	r24, 0x01	; 1
     f5c:	f1 f7       	brne	.-4      	; 0xf5a <sht_temp+0x18>
	_delay_ms(100);
	
	i2c_start();
     f5e:	27 dd       	rcall	.-1458   	; 0x9ae <i2c_start>
	i2c_device_id(SHT, READ);
     f60:	80 e4       	ldi	r24, 0x40	; 64
     f62:	61 e0       	ldi	r22, 0x01	; 1
     f64:	4e dd       	rcall	.-1380   	; 0xa02 <i2c_device_id>

	//read SHT20 data
	raw_temp = i2c_read(0);
     f66:	80 e0       	ldi	r24, 0x00	; 0
     f68:	a8 dd       	rcall	.-1200   	; 0xaba <i2c_read>
	raw_temp <<= 8;
     f6a:	f8 2e       	mov	r15, r24
     f6c:	ee 24       	eor	r14, r14
	raw_temp |= i2c_read(1);	//ignore checksum
     f6e:	81 e0       	ldi	r24, 0x01	; 1
     f70:	a4 dd       	rcall	.-1208   	; 0xaba <i2c_read>
     f72:	90 e0       	ldi	r25, 0x00	; 0
     f74:	e8 2a       	or	r14, r24
     f76:	f9 2a       	or	r15, r25
	
	i2c_stop();
     f78:	2f dd       	rcall	.-1442   	; 0x9d8 <i2c_stop>
	
	raw_temp &= 0xFFFC;
	
	temp = (175.72 * ((float)raw_temp/65536.0));
     f7a:	8c ef       	ldi	r24, 0xFC	; 252
     f7c:	9f ef       	ldi	r25, 0xFF	; 255
     f7e:	e8 22       	and	r14, r24
     f80:	f9 22       	and	r15, r25
     f82:	00 e0       	ldi	r16, 0x00	; 0
     f84:	10 e0       	ldi	r17, 0x00	; 0
     f86:	c8 01       	movw	r24, r16
     f88:	b7 01       	movw	r22, r14
     f8a:	27 d1       	rcall	.+590    	; 0x11da <__floatunsisf>
     f8c:	20 e0       	ldi	r18, 0x00	; 0
     f8e:	30 e0       	ldi	r19, 0x00	; 0
     f90:	40 e8       	ldi	r20, 0x80	; 128
     f92:	57 e3       	ldi	r21, 0x37	; 55
     f94:	b0 d1       	rcall	.+864    	; 0x12f6 <__mulsf3>
     f96:	22 e5       	ldi	r18, 0x52	; 82
     f98:	38 eb       	ldi	r19, 0xB8	; 184
     f9a:	4f e2       	ldi	r20, 0x2F	; 47
     f9c:	53 e4       	ldi	r21, 0x43	; 67
     f9e:	ab d1       	rcall	.+854    	; 0x12f6 <__mulsf3>
     fa0:	26 e6       	ldi	r18, 0x66	; 102
     fa2:	36 e6       	ldi	r19, 0x66	; 102
     fa4:	4b e3       	ldi	r20, 0x3B	; 59
     fa6:	52 e4       	ldi	r21, 0x42	; 66
     fa8:	87 d0       	rcall	.+270    	; 0x10b8 <__subsf3>
     faa:	eb d0       	rcall	.+470    	; 0x1182 <__fixunssfsi>
     fac:	dc 01       	movw	r26, r24
     fae:	cb 01       	movw	r24, r22
	temp -= 46.85;
	
	return temp;
     fb0:	1f 91       	pop	r17
     fb2:	0f 91       	pop	r16
     fb4:	ff 90       	pop	r15
     fb6:	ef 90       	pop	r14
     fb8:	08 95       	ret

00000fba <sht_humidity>:
	i2c_write(cmd);
	i2c_stop();
}

char sht_humidity()
{
     fba:	ef 92       	push	r14
     fbc:	ff 92       	push	r15
     fbe:	0f 93       	push	r16
     fc0:	1f 93       	push	r17
	unsigned short raw_humidity;
	float humidity;

	i2c_start();
     fc2:	f5 dc       	rcall	.-1558   	; 0x9ae <i2c_start>
	i2c_device_id(SHT, WRITE);
     fc4:	80 e4       	ldi	r24, 0x40	; 64
     fc6:	60 e0       	ldi	r22, 0x00	; 0
     fc8:	1c dd       	rcall	.-1480   	; 0xa02 <i2c_device_id>

	i2c_write(0xF5);	//humidity E5
     fca:	85 ef       	ldi	r24, 0xF5	; 245
     fcc:	be dd       	rcall	.-1156   	; 0xb4a <i2c_write>
     fce:	88 ea       	ldi	r24, 0xA8	; 168
     fd0:	91 e6       	ldi	r25, 0x61	; 97
     fd2:	01 97       	sbiw	r24, 0x01	; 1
     fd4:	f1 f7       	brne	.-4      	; 0xfd2 <sht_humidity+0x18>
	_delay_ms(100);

	i2c_start();
     fd6:	eb dc       	rcall	.-1578   	; 0x9ae <i2c_start>
	i2c_device_id(SHT, READ);
     fd8:	80 e4       	ldi	r24, 0x40	; 64
     fda:	61 e0       	ldi	r22, 0x01	; 1
     fdc:	12 dd       	rcall	.-1500   	; 0xa02 <i2c_device_id>

	raw_humidity = i2c_read(0);
     fde:	80 e0       	ldi	r24, 0x00	; 0
     fe0:	6c dd       	rcall	.-1320   	; 0xaba <i2c_read>
	raw_humidity <<= 8;
     fe2:	f8 2e       	mov	r15, r24
     fe4:	ee 24       	eor	r14, r14
	raw_humidity |= i2c_read(1);	//ignore checksum
     fe6:	81 e0       	ldi	r24, 0x01	; 1
     fe8:	68 dd       	rcall	.-1328   	; 0xaba <i2c_read>
     fea:	90 e0       	ldi	r25, 0x00	; 0
     fec:	e8 2a       	or	r14, r24
     fee:	f9 2a       	or	r15, r25
	
	i2c_stop();
     ff0:	f3 dc       	rcall	.-1562   	; 0x9d8 <i2c_stop>
	
	raw_humidity &= 0xFFFC;

	humidity = (125.0 * ((float)raw_humidity/65536.0));
     ff2:	8c ef       	ldi	r24, 0xFC	; 252
     ff4:	9f ef       	ldi	r25, 0xFF	; 255
     ff6:	e8 22       	and	r14, r24
     ff8:	f9 22       	and	r15, r25
     ffa:	00 e0       	ldi	r16, 0x00	; 0
     ffc:	10 e0       	ldi	r17, 0x00	; 0
     ffe:	c8 01       	movw	r24, r16
    1000:	b7 01       	movw	r22, r14
    1002:	eb d0       	rcall	.+470    	; 0x11da <__floatunsisf>
    1004:	20 e0       	ldi	r18, 0x00	; 0
    1006:	30 e0       	ldi	r19, 0x00	; 0
    1008:	40 e8       	ldi	r20, 0x80	; 128
    100a:	57 e3       	ldi	r21, 0x37	; 55
    100c:	74 d1       	rcall	.+744    	; 0x12f6 <__mulsf3>
    100e:	20 e0       	ldi	r18, 0x00	; 0
    1010:	30 e0       	ldi	r19, 0x00	; 0
    1012:	4a ef       	ldi	r20, 0xFA	; 250
    1014:	52 e4       	ldi	r21, 0x42	; 66
    1016:	6f d1       	rcall	.+734    	; 0x12f6 <__mulsf3>
    1018:	20 e0       	ldi	r18, 0x00	; 0
    101a:	30 e0       	ldi	r19, 0x00	; 0
    101c:	40 ec       	ldi	r20, 0xC0	; 192
    101e:	50 e4       	ldi	r21, 0x40	; 64
    1020:	4b d0       	rcall	.+150    	; 0x10b8 <__subsf3>
    1022:	af d0       	rcall	.+350    	; 0x1182 <__fixunssfsi>
    1024:	dc 01       	movw	r26, r24
    1026:	cb 01       	movw	r24, r22
	humidity -= 6.0;

	return humidity;
}
    1028:	1f 91       	pop	r17
    102a:	0f 91       	pop	r16
    102c:	ff 90       	pop	r15
    102e:	ef 90       	pop	r14
    1030:	08 95       	ret

00001032 <reverse_array>:
	
	return array;
}

void reverse_array(unsigned char *array, unsigned char end)
{
    1032:	ac 01       	movw	r20, r24
	unsigned char start = 0, temp;
	
	while(start < end)
    1034:	66 23       	and	r22, r22
    1036:	79 f0       	breq	.+30     	; 0x1056 <reverse_array+0x24>
    1038:	20 e0       	ldi	r18, 0x00	; 0
	{
		temp = array[start];
    103a:	da 01       	movw	r26, r20
    103c:	a2 0f       	add	r26, r18
    103e:	b1 1d       	adc	r27, r1
    1040:	9c 91       	ld	r25, X
		array[start] = array[end];
    1042:	fa 01       	movw	r30, r20
    1044:	e6 0f       	add	r30, r22
    1046:	f1 1d       	adc	r31, r1
    1048:	80 81       	ld	r24, Z
    104a:	8c 93       	st	X, r24
		array[end] = temp;
    104c:	90 83       	st	Z, r25
		start++;
    104e:	2f 5f       	subi	r18, 0xFF	; 255
		end--;
    1050:	61 50       	subi	r22, 0x01	; 1

void reverse_array(unsigned char *array, unsigned char end)
{
	unsigned char start = 0, temp;
	
	while(start < end)
    1052:	26 17       	cp	r18, r22
    1054:	90 f3       	brcs	.-28     	; 0x103a <reverse_array+0x8>
    1056:	08 95       	ret

00001058 <convert>:
*/


//converts a char number value into separate ASCII
char* convert(unsigned char value)
{
    1058:	0f 93       	push	r16
    105a:	1f 93       	push	r17
    105c:	cf 93       	push	r28
    105e:	df 93       	push	r29
    1060:	48 2f       	mov	r20, r24
    1062:	20 e0       	ldi	r18, 0x00	; 0
    1064:	30 e0       	ldi	r19, 0x00	; 0
	static unsigned char array[4];	//3
	
	for(i = 0; i < 4; i++)
	{
		//puts value in array after being split by 1 character and converted to ascii.
		array[i] = value % 10 + '0';
    1066:	c2 eb       	ldi	r28, 0xB2	; 178
    1068:	d0 e0       	ldi	r29, 0x00	; 0
*/


//converts a char number value into separate ASCII
char* convert(unsigned char value)
{
    106a:	52 2f       	mov	r21, r18
    106c:	d9 01       	movw	r26, r18
	static unsigned char array[4];	//3
	
	for(i = 0; i < 4; i++)
	{
		//puts value in array after being split by 1 character and converted to ascii.
		array[i] = value % 10 + '0';
    106e:	fe 01       	movw	r30, r28
    1070:	e2 0f       	add	r30, r18
    1072:	f3 1f       	adc	r31, r19
    1074:	84 2f       	mov	r24, r20
    1076:	6a e0       	ldi	r22, 0x0A	; 10
    1078:	c2 d1       	rcall	.+900    	; 0x13fe <__udivmodqi4>
    107a:	90 5d       	subi	r25, 0xD0	; 208
    107c:	90 83       	st	Z, r25
		
		//checks if it's the last digit to process && ensures that it won't go out of bounds
		if(value / 10 == 0)// && i < 3)
    107e:	4a 30       	cpi	r20, 0x0A	; 10
    1080:	28 f4       	brcc	.+10     	; 0x108c <convert+0x34>
		{
			//if the number of digits uses is less than 3 e.g. 24, 1
			//set a terminator value in the next position
			array[i+1] = '\0';
    1082:	fd 01       	movw	r30, r26
    1084:	ed 54       	subi	r30, 0x4D	; 77
    1086:	ff 4f       	sbci	r31, 0xFF	; 255
    1088:	10 82       	st	Z, r1
    108a:	0b c0       	rjmp	.+22     	; 0x10a2 <convert+0x4a>
			break;
    108c:	5f 5f       	subi	r21, 0xFF	; 255
    108e:	2f 5f       	subi	r18, 0xFF	; 255
    1090:	3f 4f       	sbci	r19, 0xFF	; 255
{
	char i;
	//support max of size char + NULL terminator
	static unsigned char array[4];	//3
	
	for(i = 0; i < 4; i++)
    1092:	24 30       	cpi	r18, 0x04	; 4
    1094:	31 05       	cpc	r19, r1
    1096:	29 f0       	breq	.+10     	; 0x10a2 <convert+0x4a>
			//if the number of digits uses is less than 3 e.g. 24, 1
			//set a terminator value in the next position
			array[i+1] = '\0';
			break;
		}
		value /= 10;
    1098:	84 2f       	mov	r24, r20
    109a:	6a e0       	ldi	r22, 0x0A	; 10
    109c:	b0 d1       	rcall	.+864    	; 0x13fe <__udivmodqi4>
    109e:	48 2f       	mov	r20, r24
    10a0:	e4 cf       	rjmp	.-56     	; 0x106a <convert+0x12>
	}
	
	//array is currently back to front, reverse to fix
	reverse_array(array, i);
    10a2:	02 eb       	ldi	r16, 0xB2	; 178
    10a4:	10 e0       	ldi	r17, 0x00	; 0
    10a6:	c8 01       	movw	r24, r16
    10a8:	65 2f       	mov	r22, r21
    10aa:	c3 df       	rcall	.-122    	; 0x1032 <reverse_array>
	
	return array;
}
    10ac:	c8 01       	movw	r24, r16
    10ae:	df 91       	pop	r29
    10b0:	cf 91       	pop	r28
    10b2:	1f 91       	pop	r17
    10b4:	0f 91       	pop	r16
    10b6:	08 95       	ret

000010b8 <__subsf3>:
    10b8:	50 58       	subi	r21, 0x80	; 128

000010ba <__addsf3>:
    10ba:	bb 27       	eor	r27, r27
    10bc:	aa 27       	eor	r26, r26
    10be:	0e d0       	rcall	.+28     	; 0x10dc <__addsf3x>
    10c0:	e0 c0       	rjmp	.+448    	; 0x1282 <__fp_round>
    10c2:	d1 d0       	rcall	.+418    	; 0x1266 <__fp_pscA>
    10c4:	30 f0       	brcs	.+12     	; 0x10d2 <__addsf3+0x18>
    10c6:	d6 d0       	rcall	.+428    	; 0x1274 <__fp_pscB>
    10c8:	20 f0       	brcs	.+8      	; 0x10d2 <__addsf3+0x18>
    10ca:	31 f4       	brne	.+12     	; 0x10d8 <__addsf3+0x1e>
    10cc:	9f 3f       	cpi	r25, 0xFF	; 255
    10ce:	11 f4       	brne	.+4      	; 0x10d4 <__addsf3+0x1a>
    10d0:	1e f4       	brtc	.+6      	; 0x10d8 <__addsf3+0x1e>
    10d2:	c6 c0       	rjmp	.+396    	; 0x1260 <__fp_nan>
    10d4:	0e f4       	brtc	.+2      	; 0x10d8 <__addsf3+0x1e>
    10d6:	e0 95       	com	r30
    10d8:	e7 fb       	bst	r30, 7
    10da:	bc c0       	rjmp	.+376    	; 0x1254 <__fp_inf>

000010dc <__addsf3x>:
    10dc:	e9 2f       	mov	r30, r25
    10de:	e2 d0       	rcall	.+452    	; 0x12a4 <__fp_split3>
    10e0:	80 f3       	brcs	.-32     	; 0x10c2 <__addsf3+0x8>
    10e2:	ba 17       	cp	r27, r26
    10e4:	62 07       	cpc	r22, r18
    10e6:	73 07       	cpc	r23, r19
    10e8:	84 07       	cpc	r24, r20
    10ea:	95 07       	cpc	r25, r21
    10ec:	18 f0       	brcs	.+6      	; 0x10f4 <__addsf3x+0x18>
    10ee:	71 f4       	brne	.+28     	; 0x110c <__addsf3x+0x30>
    10f0:	9e f5       	brtc	.+102    	; 0x1158 <__addsf3x+0x7c>
    10f2:	fa c0       	rjmp	.+500    	; 0x12e8 <__fp_zero>
    10f4:	0e f4       	brtc	.+2      	; 0x10f8 <__addsf3x+0x1c>
    10f6:	e0 95       	com	r30
    10f8:	0b 2e       	mov	r0, r27
    10fa:	ba 2f       	mov	r27, r26
    10fc:	a0 2d       	mov	r26, r0
    10fe:	0b 01       	movw	r0, r22
    1100:	b9 01       	movw	r22, r18
    1102:	90 01       	movw	r18, r0
    1104:	0c 01       	movw	r0, r24
    1106:	ca 01       	movw	r24, r20
    1108:	a0 01       	movw	r20, r0
    110a:	11 24       	eor	r1, r1
    110c:	ff 27       	eor	r31, r31
    110e:	59 1b       	sub	r21, r25
    1110:	99 f0       	breq	.+38     	; 0x1138 <__addsf3x+0x5c>
    1112:	59 3f       	cpi	r21, 0xF9	; 249
    1114:	50 f4       	brcc	.+20     	; 0x112a <__addsf3x+0x4e>
    1116:	50 3e       	cpi	r21, 0xE0	; 224
    1118:	68 f1       	brcs	.+90     	; 0x1174 <__addsf3x+0x98>
    111a:	1a 16       	cp	r1, r26
    111c:	f0 40       	sbci	r31, 0x00	; 0
    111e:	a2 2f       	mov	r26, r18
    1120:	23 2f       	mov	r18, r19
    1122:	34 2f       	mov	r19, r20
    1124:	44 27       	eor	r20, r20
    1126:	58 5f       	subi	r21, 0xF8	; 248
    1128:	f3 cf       	rjmp	.-26     	; 0x1110 <__addsf3x+0x34>
    112a:	46 95       	lsr	r20
    112c:	37 95       	ror	r19
    112e:	27 95       	ror	r18
    1130:	a7 95       	ror	r26
    1132:	f0 40       	sbci	r31, 0x00	; 0
    1134:	53 95       	inc	r21
    1136:	c9 f7       	brne	.-14     	; 0x112a <__addsf3x+0x4e>
    1138:	7e f4       	brtc	.+30     	; 0x1158 <__addsf3x+0x7c>
    113a:	1f 16       	cp	r1, r31
    113c:	ba 0b       	sbc	r27, r26
    113e:	62 0b       	sbc	r22, r18
    1140:	73 0b       	sbc	r23, r19
    1142:	84 0b       	sbc	r24, r20
    1144:	ba f0       	brmi	.+46     	; 0x1174 <__addsf3x+0x98>
    1146:	91 50       	subi	r25, 0x01	; 1
    1148:	a1 f0       	breq	.+40     	; 0x1172 <__addsf3x+0x96>
    114a:	ff 0f       	add	r31, r31
    114c:	bb 1f       	adc	r27, r27
    114e:	66 1f       	adc	r22, r22
    1150:	77 1f       	adc	r23, r23
    1152:	88 1f       	adc	r24, r24
    1154:	c2 f7       	brpl	.-16     	; 0x1146 <__addsf3x+0x6a>
    1156:	0e c0       	rjmp	.+28     	; 0x1174 <__addsf3x+0x98>
    1158:	ba 0f       	add	r27, r26
    115a:	62 1f       	adc	r22, r18
    115c:	73 1f       	adc	r23, r19
    115e:	84 1f       	adc	r24, r20
    1160:	48 f4       	brcc	.+18     	; 0x1174 <__addsf3x+0x98>
    1162:	87 95       	ror	r24
    1164:	77 95       	ror	r23
    1166:	67 95       	ror	r22
    1168:	b7 95       	ror	r27
    116a:	f7 95       	ror	r31
    116c:	9e 3f       	cpi	r25, 0xFE	; 254
    116e:	08 f0       	brcs	.+2      	; 0x1172 <__addsf3x+0x96>
    1170:	b3 cf       	rjmp	.-154    	; 0x10d8 <__addsf3+0x1e>
    1172:	93 95       	inc	r25
    1174:	88 0f       	add	r24, r24
    1176:	08 f0       	brcs	.+2      	; 0x117a <__addsf3x+0x9e>
    1178:	99 27       	eor	r25, r25
    117a:	ee 0f       	add	r30, r30
    117c:	97 95       	ror	r25
    117e:	87 95       	ror	r24
    1180:	08 95       	ret

00001182 <__fixunssfsi>:
    1182:	98 d0       	rcall	.+304    	; 0x12b4 <__fp_splitA>
    1184:	88 f0       	brcs	.+34     	; 0x11a8 <__fixunssfsi+0x26>
    1186:	9f 57       	subi	r25, 0x7F	; 127
    1188:	90 f0       	brcs	.+36     	; 0x11ae <__fixunssfsi+0x2c>
    118a:	b9 2f       	mov	r27, r25
    118c:	99 27       	eor	r25, r25
    118e:	b7 51       	subi	r27, 0x17	; 23
    1190:	a0 f0       	brcs	.+40     	; 0x11ba <__fixunssfsi+0x38>
    1192:	d1 f0       	breq	.+52     	; 0x11c8 <__fixunssfsi+0x46>
    1194:	66 0f       	add	r22, r22
    1196:	77 1f       	adc	r23, r23
    1198:	88 1f       	adc	r24, r24
    119a:	99 1f       	adc	r25, r25
    119c:	1a f0       	brmi	.+6      	; 0x11a4 <__fixunssfsi+0x22>
    119e:	ba 95       	dec	r27
    11a0:	c9 f7       	brne	.-14     	; 0x1194 <__fixunssfsi+0x12>
    11a2:	12 c0       	rjmp	.+36     	; 0x11c8 <__fixunssfsi+0x46>
    11a4:	b1 30       	cpi	r27, 0x01	; 1
    11a6:	81 f0       	breq	.+32     	; 0x11c8 <__fixunssfsi+0x46>
    11a8:	9f d0       	rcall	.+318    	; 0x12e8 <__fp_zero>
    11aa:	b1 e0       	ldi	r27, 0x01	; 1
    11ac:	08 95       	ret
    11ae:	9c c0       	rjmp	.+312    	; 0x12e8 <__fp_zero>
    11b0:	67 2f       	mov	r22, r23
    11b2:	78 2f       	mov	r23, r24
    11b4:	88 27       	eor	r24, r24
    11b6:	b8 5f       	subi	r27, 0xF8	; 248
    11b8:	39 f0       	breq	.+14     	; 0x11c8 <__fixunssfsi+0x46>
    11ba:	b9 3f       	cpi	r27, 0xF9	; 249
    11bc:	cc f3       	brlt	.-14     	; 0x11b0 <__fixunssfsi+0x2e>
    11be:	86 95       	lsr	r24
    11c0:	77 95       	ror	r23
    11c2:	67 95       	ror	r22
    11c4:	b3 95       	inc	r27
    11c6:	d9 f7       	brne	.-10     	; 0x11be <__fixunssfsi+0x3c>
    11c8:	3e f4       	brtc	.+14     	; 0x11d8 <__fixunssfsi+0x56>
    11ca:	90 95       	com	r25
    11cc:	80 95       	com	r24
    11ce:	70 95       	com	r23
    11d0:	61 95       	neg	r22
    11d2:	7f 4f       	sbci	r23, 0xFF	; 255
    11d4:	8f 4f       	sbci	r24, 0xFF	; 255
    11d6:	9f 4f       	sbci	r25, 0xFF	; 255
    11d8:	08 95       	ret

000011da <__floatunsisf>:
    11da:	e8 94       	clt
    11dc:	09 c0       	rjmp	.+18     	; 0x11f0 <__floatsisf+0x12>

000011de <__floatsisf>:
    11de:	97 fb       	bst	r25, 7
    11e0:	3e f4       	brtc	.+14     	; 0x11f0 <__floatsisf+0x12>
    11e2:	90 95       	com	r25
    11e4:	80 95       	com	r24
    11e6:	70 95       	com	r23
    11e8:	61 95       	neg	r22
    11ea:	7f 4f       	sbci	r23, 0xFF	; 255
    11ec:	8f 4f       	sbci	r24, 0xFF	; 255
    11ee:	9f 4f       	sbci	r25, 0xFF	; 255
    11f0:	99 23       	and	r25, r25
    11f2:	a9 f0       	breq	.+42     	; 0x121e <__floatsisf+0x40>
    11f4:	f9 2f       	mov	r31, r25
    11f6:	96 e9       	ldi	r25, 0x96	; 150
    11f8:	bb 27       	eor	r27, r27
    11fa:	93 95       	inc	r25
    11fc:	f6 95       	lsr	r31
    11fe:	87 95       	ror	r24
    1200:	77 95       	ror	r23
    1202:	67 95       	ror	r22
    1204:	b7 95       	ror	r27
    1206:	f1 11       	cpse	r31, r1
    1208:	f8 cf       	rjmp	.-16     	; 0x11fa <__floatsisf+0x1c>
    120a:	fa f4       	brpl	.+62     	; 0x124a <__floatsisf+0x6c>
    120c:	bb 0f       	add	r27, r27
    120e:	11 f4       	brne	.+4      	; 0x1214 <__floatsisf+0x36>
    1210:	60 ff       	sbrs	r22, 0
    1212:	1b c0       	rjmp	.+54     	; 0x124a <__floatsisf+0x6c>
    1214:	6f 5f       	subi	r22, 0xFF	; 255
    1216:	7f 4f       	sbci	r23, 0xFF	; 255
    1218:	8f 4f       	sbci	r24, 0xFF	; 255
    121a:	9f 4f       	sbci	r25, 0xFF	; 255
    121c:	16 c0       	rjmp	.+44     	; 0x124a <__floatsisf+0x6c>
    121e:	88 23       	and	r24, r24
    1220:	11 f0       	breq	.+4      	; 0x1226 <__floatsisf+0x48>
    1222:	96 e9       	ldi	r25, 0x96	; 150
    1224:	11 c0       	rjmp	.+34     	; 0x1248 <__floatsisf+0x6a>
    1226:	77 23       	and	r23, r23
    1228:	21 f0       	breq	.+8      	; 0x1232 <__floatsisf+0x54>
    122a:	9e e8       	ldi	r25, 0x8E	; 142
    122c:	87 2f       	mov	r24, r23
    122e:	76 2f       	mov	r23, r22
    1230:	05 c0       	rjmp	.+10     	; 0x123c <__floatsisf+0x5e>
    1232:	66 23       	and	r22, r22
    1234:	71 f0       	breq	.+28     	; 0x1252 <__floatsisf+0x74>
    1236:	96 e8       	ldi	r25, 0x86	; 134
    1238:	86 2f       	mov	r24, r22
    123a:	70 e0       	ldi	r23, 0x00	; 0
    123c:	60 e0       	ldi	r22, 0x00	; 0
    123e:	2a f0       	brmi	.+10     	; 0x124a <__floatsisf+0x6c>
    1240:	9a 95       	dec	r25
    1242:	66 0f       	add	r22, r22
    1244:	77 1f       	adc	r23, r23
    1246:	88 1f       	adc	r24, r24
    1248:	da f7       	brpl	.-10     	; 0x1240 <__floatsisf+0x62>
    124a:	88 0f       	add	r24, r24
    124c:	96 95       	lsr	r25
    124e:	87 95       	ror	r24
    1250:	97 f9       	bld	r25, 7
    1252:	08 95       	ret

00001254 <__fp_inf>:
    1254:	97 f9       	bld	r25, 7
    1256:	9f 67       	ori	r25, 0x7F	; 127
    1258:	80 e8       	ldi	r24, 0x80	; 128
    125a:	70 e0       	ldi	r23, 0x00	; 0
    125c:	60 e0       	ldi	r22, 0x00	; 0
    125e:	08 95       	ret

00001260 <__fp_nan>:
    1260:	9f ef       	ldi	r25, 0xFF	; 255
    1262:	80 ec       	ldi	r24, 0xC0	; 192
    1264:	08 95       	ret

00001266 <__fp_pscA>:
    1266:	00 24       	eor	r0, r0
    1268:	0a 94       	dec	r0
    126a:	16 16       	cp	r1, r22
    126c:	17 06       	cpc	r1, r23
    126e:	18 06       	cpc	r1, r24
    1270:	09 06       	cpc	r0, r25
    1272:	08 95       	ret

00001274 <__fp_pscB>:
    1274:	00 24       	eor	r0, r0
    1276:	0a 94       	dec	r0
    1278:	12 16       	cp	r1, r18
    127a:	13 06       	cpc	r1, r19
    127c:	14 06       	cpc	r1, r20
    127e:	05 06       	cpc	r0, r21
    1280:	08 95       	ret

00001282 <__fp_round>:
    1282:	09 2e       	mov	r0, r25
    1284:	03 94       	inc	r0
    1286:	00 0c       	add	r0, r0
    1288:	11 f4       	brne	.+4      	; 0x128e <__fp_round+0xc>
    128a:	88 23       	and	r24, r24
    128c:	52 f0       	brmi	.+20     	; 0x12a2 <__fp_round+0x20>
    128e:	bb 0f       	add	r27, r27
    1290:	40 f4       	brcc	.+16     	; 0x12a2 <__fp_round+0x20>
    1292:	bf 2b       	or	r27, r31
    1294:	11 f4       	brne	.+4      	; 0x129a <__fp_round+0x18>
    1296:	60 ff       	sbrs	r22, 0
    1298:	04 c0       	rjmp	.+8      	; 0x12a2 <__fp_round+0x20>
    129a:	6f 5f       	subi	r22, 0xFF	; 255
    129c:	7f 4f       	sbci	r23, 0xFF	; 255
    129e:	8f 4f       	sbci	r24, 0xFF	; 255
    12a0:	9f 4f       	sbci	r25, 0xFF	; 255
    12a2:	08 95       	ret

000012a4 <__fp_split3>:
    12a4:	57 fd       	sbrc	r21, 7
    12a6:	90 58       	subi	r25, 0x80	; 128
    12a8:	44 0f       	add	r20, r20
    12aa:	55 1f       	adc	r21, r21
    12ac:	59 f0       	breq	.+22     	; 0x12c4 <__fp_splitA+0x10>
    12ae:	5f 3f       	cpi	r21, 0xFF	; 255
    12b0:	71 f0       	breq	.+28     	; 0x12ce <__fp_splitA+0x1a>
    12b2:	47 95       	ror	r20

000012b4 <__fp_splitA>:
    12b4:	88 0f       	add	r24, r24
    12b6:	97 fb       	bst	r25, 7
    12b8:	99 1f       	adc	r25, r25
    12ba:	61 f0       	breq	.+24     	; 0x12d4 <__fp_splitA+0x20>
    12bc:	9f 3f       	cpi	r25, 0xFF	; 255
    12be:	79 f0       	breq	.+30     	; 0x12de <__fp_splitA+0x2a>
    12c0:	87 95       	ror	r24
    12c2:	08 95       	ret
    12c4:	12 16       	cp	r1, r18
    12c6:	13 06       	cpc	r1, r19
    12c8:	14 06       	cpc	r1, r20
    12ca:	55 1f       	adc	r21, r21
    12cc:	f2 cf       	rjmp	.-28     	; 0x12b2 <__fp_split3+0xe>
    12ce:	46 95       	lsr	r20
    12d0:	f1 df       	rcall	.-30     	; 0x12b4 <__fp_splitA>
    12d2:	08 c0       	rjmp	.+16     	; 0x12e4 <__fp_splitA+0x30>
    12d4:	16 16       	cp	r1, r22
    12d6:	17 06       	cpc	r1, r23
    12d8:	18 06       	cpc	r1, r24
    12da:	99 1f       	adc	r25, r25
    12dc:	f1 cf       	rjmp	.-30     	; 0x12c0 <__fp_splitA+0xc>
    12de:	86 95       	lsr	r24
    12e0:	71 05       	cpc	r23, r1
    12e2:	61 05       	cpc	r22, r1
    12e4:	08 94       	sec
    12e6:	08 95       	ret

000012e8 <__fp_zero>:
    12e8:	e8 94       	clt

000012ea <__fp_szero>:
    12ea:	bb 27       	eor	r27, r27
    12ec:	66 27       	eor	r22, r22
    12ee:	77 27       	eor	r23, r23
    12f0:	cb 01       	movw	r24, r22
    12f2:	97 f9       	bld	r25, 7
    12f4:	08 95       	ret

000012f6 <__mulsf3>:
    12f6:	0a d0       	rcall	.+20     	; 0x130c <__mulsf3x>
    12f8:	c4 cf       	rjmp	.-120    	; 0x1282 <__fp_round>
    12fa:	b5 df       	rcall	.-150    	; 0x1266 <__fp_pscA>
    12fc:	28 f0       	brcs	.+10     	; 0x1308 <__mulsf3+0x12>
    12fe:	ba df       	rcall	.-140    	; 0x1274 <__fp_pscB>
    1300:	18 f0       	brcs	.+6      	; 0x1308 <__mulsf3+0x12>
    1302:	95 23       	and	r25, r21
    1304:	09 f0       	breq	.+2      	; 0x1308 <__mulsf3+0x12>
    1306:	a6 cf       	rjmp	.-180    	; 0x1254 <__fp_inf>
    1308:	ab cf       	rjmp	.-170    	; 0x1260 <__fp_nan>
    130a:	ef cf       	rjmp	.-34     	; 0x12ea <__fp_szero>

0000130c <__mulsf3x>:
    130c:	cb df       	rcall	.-106    	; 0x12a4 <__fp_split3>
    130e:	a8 f3       	brcs	.-22     	; 0x12fa <__mulsf3+0x4>

00001310 <__mulsf3_pse>:
    1310:	99 23       	and	r25, r25
    1312:	d9 f3       	breq	.-10     	; 0x130a <__mulsf3+0x14>
    1314:	55 23       	and	r21, r21
    1316:	c9 f3       	breq	.-14     	; 0x130a <__mulsf3+0x14>
    1318:	95 0f       	add	r25, r21
    131a:	50 e0       	ldi	r21, 0x00	; 0
    131c:	55 1f       	adc	r21, r21
    131e:	aa 27       	eor	r26, r26
    1320:	ee 27       	eor	r30, r30
    1322:	ff 27       	eor	r31, r31
    1324:	bb 27       	eor	r27, r27
    1326:	00 24       	eor	r0, r0
    1328:	08 94       	sec
    132a:	67 95       	ror	r22
    132c:	20 f4       	brcc	.+8      	; 0x1336 <__mulsf3_pse+0x26>
    132e:	e2 0f       	add	r30, r18
    1330:	f3 1f       	adc	r31, r19
    1332:	b4 1f       	adc	r27, r20
    1334:	0a 1e       	adc	r0, r26
    1336:	22 0f       	add	r18, r18
    1338:	33 1f       	adc	r19, r19
    133a:	44 1f       	adc	r20, r20
    133c:	aa 1f       	adc	r26, r26
    133e:	66 95       	lsr	r22
    1340:	a9 f7       	brne	.-22     	; 0x132c <__mulsf3_pse+0x1c>
    1342:	77 95       	ror	r23
    1344:	30 f4       	brcc	.+12     	; 0x1352 <__mulsf3_pse+0x42>
    1346:	f3 0f       	add	r31, r19
    1348:	b4 1f       	adc	r27, r20
    134a:	0a 1e       	adc	r0, r26
    134c:	12 1e       	adc	r1, r18
    134e:	08 f4       	brcc	.+2      	; 0x1352 <__mulsf3_pse+0x42>
    1350:	63 95       	inc	r22
    1352:	33 0f       	add	r19, r19
    1354:	44 1f       	adc	r20, r20
    1356:	aa 1f       	adc	r26, r26
    1358:	22 1f       	adc	r18, r18
    135a:	76 95       	lsr	r23
    135c:	99 f7       	brne	.-26     	; 0x1344 <__mulsf3_pse+0x34>
    135e:	87 95       	ror	r24
    1360:	20 f4       	brcc	.+8      	; 0x136a <__mulsf3_pse+0x5a>
    1362:	b4 0f       	add	r27, r20
    1364:	0a 1e       	adc	r0, r26
    1366:	12 1e       	adc	r1, r18
    1368:	63 1f       	adc	r22, r19
    136a:	44 0f       	add	r20, r20
    136c:	aa 1f       	adc	r26, r26
    136e:	22 1f       	adc	r18, r18
    1370:	33 1f       	adc	r19, r19
    1372:	86 95       	lsr	r24
    1374:	a9 f7       	brne	.-22     	; 0x1360 <__mulsf3_pse+0x50>
    1376:	86 2f       	mov	r24, r22
    1378:	71 2d       	mov	r23, r1
    137a:	60 2d       	mov	r22, r0
    137c:	11 24       	eor	r1, r1
    137e:	9f 57       	subi	r25, 0x7F	; 127
    1380:	50 40       	sbci	r21, 0x00	; 0
    1382:	8a f0       	brmi	.+34     	; 0x13a6 <__mulsf3_pse+0x96>
    1384:	e1 f0       	breq	.+56     	; 0x13be <__mulsf3_pse+0xae>
    1386:	88 23       	and	r24, r24
    1388:	4a f0       	brmi	.+18     	; 0x139c <__mulsf3_pse+0x8c>
    138a:	ee 0f       	add	r30, r30
    138c:	ff 1f       	adc	r31, r31
    138e:	bb 1f       	adc	r27, r27
    1390:	66 1f       	adc	r22, r22
    1392:	77 1f       	adc	r23, r23
    1394:	88 1f       	adc	r24, r24
    1396:	91 50       	subi	r25, 0x01	; 1
    1398:	50 40       	sbci	r21, 0x00	; 0
    139a:	a9 f7       	brne	.-22     	; 0x1386 <__mulsf3_pse+0x76>
    139c:	9e 3f       	cpi	r25, 0xFE	; 254
    139e:	51 05       	cpc	r21, r1
    13a0:	70 f0       	brcs	.+28     	; 0x13be <__mulsf3_pse+0xae>
    13a2:	58 cf       	rjmp	.-336    	; 0x1254 <__fp_inf>
    13a4:	a2 cf       	rjmp	.-188    	; 0x12ea <__fp_szero>
    13a6:	5f 3f       	cpi	r21, 0xFF	; 255
    13a8:	ec f3       	brlt	.-6      	; 0x13a4 <__mulsf3_pse+0x94>
    13aa:	98 3e       	cpi	r25, 0xE8	; 232
    13ac:	dc f3       	brlt	.-10     	; 0x13a4 <__mulsf3_pse+0x94>
    13ae:	86 95       	lsr	r24
    13b0:	77 95       	ror	r23
    13b2:	67 95       	ror	r22
    13b4:	b7 95       	ror	r27
    13b6:	f7 95       	ror	r31
    13b8:	e7 95       	ror	r30
    13ba:	9f 5f       	subi	r25, 0xFF	; 255
    13bc:	c1 f7       	brne	.-16     	; 0x13ae <__mulsf3_pse+0x9e>
    13be:	fe 2b       	or	r31, r30
    13c0:	88 0f       	add	r24, r24
    13c2:	91 1d       	adc	r25, r1
    13c4:	96 95       	lsr	r25
    13c6:	87 95       	ror	r24
    13c8:	97 f9       	bld	r25, 7
    13ca:	08 95       	ret

000013cc <__mulsi3>:
    13cc:	ff 27       	eor	r31, r31
    13ce:	ee 27       	eor	r30, r30
    13d0:	bb 27       	eor	r27, r27
    13d2:	aa 27       	eor	r26, r26

000013d4 <__mulsi3_loop>:
    13d4:	60 ff       	sbrs	r22, 0
    13d6:	04 c0       	rjmp	.+8      	; 0x13e0 <__mulsi3_skip1>
    13d8:	a2 0f       	add	r26, r18
    13da:	b3 1f       	adc	r27, r19
    13dc:	e4 1f       	adc	r30, r20
    13de:	f5 1f       	adc	r31, r21

000013e0 <__mulsi3_skip1>:
    13e0:	22 0f       	add	r18, r18
    13e2:	33 1f       	adc	r19, r19
    13e4:	44 1f       	adc	r20, r20
    13e6:	55 1f       	adc	r21, r21
    13e8:	96 95       	lsr	r25
    13ea:	87 95       	ror	r24
    13ec:	77 95       	ror	r23
    13ee:	67 95       	ror	r22
    13f0:	89 f7       	brne	.-30     	; 0x13d4 <__mulsi3_loop>
    13f2:	00 97       	sbiw	r24, 0x00	; 0
    13f4:	76 07       	cpc	r23, r22
    13f6:	71 f7       	brne	.-36     	; 0x13d4 <__mulsi3_loop>

000013f8 <__mulsi3_exit>:
    13f8:	cf 01       	movw	r24, r30
    13fa:	bd 01       	movw	r22, r26
    13fc:	08 95       	ret

000013fe <__udivmodqi4>:
    13fe:	99 1b       	sub	r25, r25
    1400:	79 e0       	ldi	r23, 0x09	; 9
    1402:	04 c0       	rjmp	.+8      	; 0x140c <__udivmodqi4_ep>

00001404 <__udivmodqi4_loop>:
    1404:	99 1f       	adc	r25, r25
    1406:	96 17       	cp	r25, r22
    1408:	08 f0       	brcs	.+2      	; 0x140c <__udivmodqi4_ep>
    140a:	96 1b       	sub	r25, r22

0000140c <__udivmodqi4_ep>:
    140c:	88 1f       	adc	r24, r24
    140e:	7a 95       	dec	r23
    1410:	c9 f7       	brne	.-14     	; 0x1404 <__udivmodqi4_loop>
    1412:	80 95       	com	r24
    1414:	08 95       	ret

00001416 <__udivmodsi4>:
    1416:	a1 e2       	ldi	r26, 0x21	; 33
    1418:	1a 2e       	mov	r1, r26
    141a:	aa 1b       	sub	r26, r26
    141c:	bb 1b       	sub	r27, r27
    141e:	fd 01       	movw	r30, r26
    1420:	0d c0       	rjmp	.+26     	; 0x143c <__udivmodsi4_ep>

00001422 <__udivmodsi4_loop>:
    1422:	aa 1f       	adc	r26, r26
    1424:	bb 1f       	adc	r27, r27
    1426:	ee 1f       	adc	r30, r30
    1428:	ff 1f       	adc	r31, r31
    142a:	a2 17       	cp	r26, r18
    142c:	b3 07       	cpc	r27, r19
    142e:	e4 07       	cpc	r30, r20
    1430:	f5 07       	cpc	r31, r21
    1432:	20 f0       	brcs	.+8      	; 0x143c <__udivmodsi4_ep>
    1434:	a2 1b       	sub	r26, r18
    1436:	b3 0b       	sbc	r27, r19
    1438:	e4 0b       	sbc	r30, r20
    143a:	f5 0b       	sbc	r31, r21

0000143c <__udivmodsi4_ep>:
    143c:	66 1f       	adc	r22, r22
    143e:	77 1f       	adc	r23, r23
    1440:	88 1f       	adc	r24, r24
    1442:	99 1f       	adc	r25, r25
    1444:	1a 94       	dec	r1
    1446:	69 f7       	brne	.-38     	; 0x1422 <__udivmodsi4_loop>
    1448:	60 95       	com	r22
    144a:	70 95       	com	r23
    144c:	80 95       	com	r24
    144e:	90 95       	com	r25
    1450:	9b 01       	movw	r18, r22
    1452:	ac 01       	movw	r20, r24
    1454:	bd 01       	movw	r22, r26
    1456:	cf 01       	movw	r24, r30
    1458:	08 95       	ret

0000145a <__eerd_byte_tn85>:
    145a:	e1 99       	sbic	0x1c, 1	; 28
    145c:	fe cf       	rjmp	.-4      	; 0x145a <__eerd_byte_tn85>
    145e:	9f bb       	out	0x1f, r25	; 31
    1460:	8e bb       	out	0x1e, r24	; 30
    1462:	e0 9a       	sbi	0x1c, 0	; 28
    1464:	99 27       	eor	r25, r25
    1466:	8d b3       	in	r24, 0x1d	; 29
    1468:	08 95       	ret

0000146a <__eerd_word_tn85>:
    146a:	a8 e1       	ldi	r26, 0x18	; 24
    146c:	b0 e0       	ldi	r27, 0x00	; 0
    146e:	42 e0       	ldi	r20, 0x02	; 2
    1470:	50 e0       	ldi	r21, 0x00	; 0
    1472:	13 c0       	rjmp	.+38     	; 0x149a <__eerd_blraw_tn85>

00001474 <__eewr_byte_tn85>:
    1474:	26 2f       	mov	r18, r22

00001476 <__eewr_r18_tn85>:
    1476:	e1 99       	sbic	0x1c, 1	; 28
    1478:	fe cf       	rjmp	.-4      	; 0x1476 <__eewr_r18_tn85>
    147a:	1c ba       	out	0x1c, r1	; 28
    147c:	9f bb       	out	0x1f, r25	; 31
    147e:	8e bb       	out	0x1e, r24	; 30
    1480:	2d bb       	out	0x1d, r18	; 29
    1482:	0f b6       	in	r0, 0x3f	; 63
    1484:	f8 94       	cli
    1486:	e2 9a       	sbi	0x1c, 2	; 28
    1488:	e1 9a       	sbi	0x1c, 1	; 28
    148a:	0f be       	out	0x3f, r0	; 63
    148c:	01 96       	adiw	r24, 0x01	; 1
    148e:	08 95       	ret

00001490 <__eewr_word_tn85>:
    1490:	f1 df       	rcall	.-30     	; 0x1474 <__eewr_byte_tn85>
    1492:	27 2f       	mov	r18, r23
    1494:	f0 cf       	rjmp	.-32     	; 0x1476 <__eewr_r18_tn85>

00001496 <__eerd_block_tn85>:
    1496:	dc 01       	movw	r26, r24
    1498:	cb 01       	movw	r24, r22

0000149a <__eerd_blraw_tn85>:
    149a:	fc 01       	movw	r30, r24
    149c:	e1 99       	sbic	0x1c, 1	; 28
    149e:	fe cf       	rjmp	.-4      	; 0x149c <__eerd_blraw_tn85+0x2>
    14a0:	06 c0       	rjmp	.+12     	; 0x14ae <__eerd_blraw_tn85+0x14>
    14a2:	ff bb       	out	0x1f, r31	; 31
    14a4:	ee bb       	out	0x1e, r30	; 30
    14a6:	e0 9a       	sbi	0x1c, 0	; 28
    14a8:	31 96       	adiw	r30, 0x01	; 1
    14aa:	0d b2       	in	r0, 0x1d	; 29
    14ac:	0d 92       	st	X+, r0
    14ae:	41 50       	subi	r20, 0x01	; 1
    14b0:	50 40       	sbci	r21, 0x00	; 0
    14b2:	b8 f7       	brcc	.-18     	; 0x14a2 <__eerd_blraw_tn85+0x8>
    14b4:	08 95       	ret

000014b6 <_exit>:
    14b6:	f8 94       	cli

000014b8 <__stop_program>:
    14b8:	ff cf       	rjmp	.-2      	; 0x14b8 <__stop_program>
